

Microchip Technology PIC LITE Macro Assembler V1.40 build -251452761 
                                                                                               Tue Jan 10 18:18:38 2017

Microchip Technology Omniscient Code Generator v1.40 (Free mode) build 201612010151
     1                           	processor	16F18855
     2                           	opt	pw 120
     3                           	opt	lm
     4                           	psect	nvBANK0,global,class=BANK0,space=1,delta=1
     5                           	psect	cinit,global,class=CODE,merge=1,delta=2
     6                           	psect	bssCOMMON,global,class=COMMON,space=1,delta=1
     7                           	psect	bssBANK0,global,class=BANK0,space=1,delta=1
     8                           	psect	bssBANK1,global,class=BANK1,space=1,delta=1
     9                           	psect	clrtext,global,class=CODE,delta=2
    10                           	psect	cstackCOMMON,global,class=COMMON,space=1,delta=1
    11                           	psect	cstackBANK0,global,class=BANK0,space=1,delta=1
    12                           	psect	maintext,global,class=CODE,merge=1,split=1,delta=2
    13                           	psect	text1,local,class=CODE,merge=1,delta=2
    14                           	psect	text2,local,class=CODE,merge=1,delta=2
    15                           	psect	text3,local,class=CODE,merge=1,delta=2
    16                           	psect	text4,local,class=CODE,merge=1,delta=2
    17                           	psect	text5,local,class=CODE,merge=1,delta=2
    18                           	psect	text6,local,class=CODE,merge=1,delta=2
    19                           	psect	text7,local,class=CODE,merge=1,delta=2
    20                           	psect	text8,local,class=CODE,merge=1,delta=2
    21                           	psect	text9,local,class=CODE,merge=1,delta=2
    22                           	psect	text10,local,class=CODE,merge=1,delta=2
    23                           	psect	text11,local,class=CODE,merge=1,delta=2
    24                           	psect	text12,local,class=CODE,merge=1,delta=2
    25                           	psect	text13,local,class=CODE,merge=1,delta=2
    26                           	psect	text14,local,class=CODE,merge=1,delta=2
    27                           	psect	text15,local,class=CODE,merge=1,delta=2
    28                           	psect	text16,local,class=CODE,merge=1,delta=2
    29                           	psect	intentry,global,class=CODE,delta=2
    30                           	psect	text18,local,class=CODE,merge=1,delta=2
    31                           	psect	text19,local,class=CODE,merge=1,delta=2
    32                           	dabs	1,0x7E,2
    33  0000                     
    34                           ; Version 1.40
    35                           ; Generated 01/12/2016 GMT
    36                           ; 
    37                           ; Copyright © 2016, Microchip Technology Inc. and its subsidiaries ("Microchip")
    38                           ; All rights reserved.
    39                           ; 
    40                           ; This software is developed by Microchip Technology Inc. and its subsidiaries ("Microch
      +                          ip").
    41                           ; 
    42                           ; Redistribution and use in source and binary forms, with or without modification, are
    43                           ; permitted provided that the following conditions are met:
    44                           ; 
    45                           ;     1. Redistributions of source code must retain the above copyright notice, this lis
      +                          t of
    46                           ;        conditions and the following disclaimer.
    47                           ; 
    48                           ;     2. Redistributions in binary form must reproduce the above copyright notice, this 
      +                          list
    49                           ;        of conditions and the following disclaimer in the documentation and/or other
    50                           ;        materials provided with the distribution.
    51                           ; 
    52                           ;     3. Microchip's name may not be used to endorse or promote products derived from th
      +                          is
    53                           ;        software without specific prior written permission.
    54                           ; 
    55                           ; THIS SOFTWARE IS PROVIDED BY MICROCHIP "AS IS" AND ANY EXPRESS OR IMPLIED WARRANTIES,
    56                           ; INCLUDING, BUT NOT LIMITED TO, THE IMPLIED WARRANTIES OF MERCHANTABILITY AND FITNESS F
      +                          OR
    57                           ; PURPOSE ARE DISCLAIMED.  IN NO EVENT SHALL MICROCHIP BE LIABLE FOR ANY DIRECT, INDIREC
      +                          T,
    58                           ; INCIDENTAL, SPECIAL, EXEMPLARY, OR CONSEQUENTIAL DAMAGES (INCLUDING BUT NOT LIMITED TO
    59                           ; PROCUREMENT OF SUBSTITUTE GOODS OR SERVICES; LOSS OF USE, DATA OR PROFITS; OR BUSINESS
    60                           ; INTERRUPTION) HOWSOEVER CAUSED AND ON ANY THEORY OF LIABILITY, WHETHER IN CONTRACT, ST
      +                          RICT
    61                           ; LIABILITY, OR TORT (INCLUDING NEGLIGENCE OR OTHERWISE) ARISING IN ANY WAY OUT OF THE U
      +                          SE OF
    62                           ; THIS SOFTWARE, EVEN IF ADVISED OF THE POSSIBILITY OF SUCH DAMAGE.
    63                           ; 
    64                           ; 
    65                           ; Code-generator required, PIC16F18855 Definitions
    66                           ; 
    67                           ; SFR Addresses
    68  0000                     	;# 
    69  0001                     	;# 
    70  0002                     	;# 
    71  0003                     	;# 
    72  0004                     	;# 
    73  0005                     	;# 
    74  0006                     	;# 
    75  0007                     	;# 
    76  0008                     	;# 
    77  0009                     	;# 
    78  000A                     	;# 
    79  000B                     	;# 
    80  000C                     	;# 
    81  000D                     	;# 
    82  000E                     	;# 
    83  0010                     	;# 
    84  0011                     	;# 
    85  0012                     	;# 
    86  0013                     	;# 
    87  0016                     	;# 
    88  0017                     	;# 
    89  0018                     	;# 
    90  001C                     	;# 
    91  001C                     	;# 
    92  001D                     	;# 
    93  001D                     	;# 
    94  001E                     	;# 
    95  001F                     	;# 
    96  008C                     	;# 
    97  008C                     	;# 
    98  008D                     	;# 
    99  008E                     	;# 
   100  008E                     	;# 
   101  008F                     	;# 
   102  0090                     	;# 
   103  0090                     	;# 
   104  0091                     	;# 
   105  0093                     	;# 
   106  0094                     	;# 
   107  0095                     	;# 
   108  0096                     	;# 
   109  0097                     	;# 
   110  0098                     	;# 
   111  0099                     	;# 
   112  009A                     	;# 
   113  009B                     	;# 
   114  009C                     	;# 
   115  009D                     	;# 
   116  009E                     	;# 
   117  010C                     	;# 
   118  010D                     	;# 
   119  010E                     	;# 
   120  010E                     	;# 
   121  010F                     	;# 
   122  0110                     	;# 
   123  0110                     	;# 
   124  0111                     	;# 
   125  0112                     	;# 
   126  0112                     	;# 
   127  0113                     	;# 
   128  0114                     	;# 
   129  0114                     	;# 
   130  0115                     	;# 
   131  0116                     	;# 
   132  0116                     	;# 
   133  0117                     	;# 
   134  0119                     	;# 
   135  0119                     	;# 
   136  0119                     	;# 
   137  011A                     	;# 
   138  011A                     	;# 
   139  011A                     	;# 
   140  011B                     	;# 
   141  011B                     	;# 
   142  011B                     	;# 
   143  011B                     	;# 
   144  011B                     	;# 
   145  011C                     	;# 
   146  011C                     	;# 
   147  011C                     	;# 
   148  011D                     	;# 
   149  011D                     	;# 
   150  011D                     	;# 
   151  011E                     	;# 
   152  011E                     	;# 
   153  011E                     	;# 
   154  011F                     	;# 
   155  011F                     	;# 
   156  011F                     	;# 
   157  011F                     	;# 
   158  011F                     	;# 
   159  018C                     	;# 
   160  018D                     	;# 
   161  018E                     	;# 
   162  018F                     	;# 
   163  0190                     	;# 
   164  0191                     	;# 
   165  0192                     	;# 
   166  0196                     	;# 
   167  0197                     	;# 
   168  0198                     	;# 
   169  0199                     	;# 
   170  019A                     	;# 
   171  019B                     	;# 
   172  019C                     	;# 
   173  020C                     	;# 
   174  020C                     	;# 
   175  020D                     	;# 
   176  020E                     	;# 
   177  020F                     	;# 
   178  020F                     	;# 
   179  0210                     	;# 
   180  0210                     	;# 
   181  0211                     	;# 
   182  0211                     	;# 
   183  0212                     	;# 
   184  0212                     	;# 
   185  0213                     	;# 
   186  0214                     	;# 
   187  0215                     	;# 
   188  0215                     	;# 
   189  0216                     	;# 
   190  0216                     	;# 
   191  0217                     	;# 
   192  0217                     	;# 
   193  0218                     	;# 
   194  0218                     	;# 
   195  0219                     	;# 
   196  021A                     	;# 
   197  021B                     	;# 
   198  021B                     	;# 
   199  021C                     	;# 
   200  021C                     	;# 
   201  021D                     	;# 
   202  021D                     	;# 
   203  021E                     	;# 
   204  021F                     	;# 
   205  028C                     	;# 
   206  028C                     	;# 
   207  028D                     	;# 
   208  028D                     	;# 
   209  028E                     	;# 
   210  028F                     	;# 
   211  0290                     	;# 
   212  0290                     	;# 
   213  0291                     	;# 
   214  0292                     	;# 
   215  0292                     	;# 
   216  0293                     	;# 
   217  0293                     	;# 
   218  0294                     	;# 
   219  0295                     	;# 
   220  0296                     	;# 
   221  0296                     	;# 
   222  0297                     	;# 
   223  0298                     	;# 
   224  0298                     	;# 
   225  0299                     	;# 
   226  0299                     	;# 
   227  029A                     	;# 
   228  029B                     	;# 
   229  029C                     	;# 
   230  029C                     	;# 
   231  029D                     	;# 
   232  030C                     	;# 
   233  030C                     	;# 
   234  030D                     	;# 
   235  030E                     	;# 
   236  030F                     	;# 
   237  0310                     	;# 
   238  0310                     	;# 
   239  0311                     	;# 
   240  0312                     	;# 
   241  0313                     	;# 
   242  0314                     	;# 
   243  0314                     	;# 
   244  0315                     	;# 
   245  0316                     	;# 
   246  0317                     	;# 
   247  0318                     	;# 
   248  0318                     	;# 
   249  0319                     	;# 
   250  031A                     	;# 
   251  031B                     	;# 
   252  031C                     	;# 
   253  031C                     	;# 
   254  031D                     	;# 
   255  031E                     	;# 
   256  031F                     	;# 
   257  038C                     	;# 
   258  038D                     	;# 
   259  038E                     	;# 
   260  0390                     	;# 
   261  0391                     	;# 
   262  0392                     	;# 
   263  040C                     	;# 
   264  040D                     	;# 
   265  040E                     	;# 
   266  040F                     	;# 
   267  0410                     	;# 
   268  0411                     	;# 
   269  0416                     	;# 
   270  0416                     	;# 
   271  0417                     	;# 
   272  0418                     	;# 
   273  0418                     	;# 
   274  0419                     	;# 
   275  041A                     	;# 
   276  041A                     	;# 
   277  041B                     	;# 
   278  041C                     	;# 
   279  041C                     	;# 
   280  041D                     	;# 
   281  041E                     	;# 
   282  041F                     	;# 
   283  048C                     	;# 
   284  048C                     	;# 
   285  048D                     	;# 
   286  048E                     	;# 
   287  048F                     	;# 
   288  048F                     	;# 
   289  0490                     	;# 
   290  0491                     	;# 
   291  0492                     	;# 
   292  0492                     	;# 
   293  0493                     	;# 
   294  0494                     	;# 
   295  0495                     	;# 
   296  0495                     	;# 
   297  0496                     	;# 
   298  0497                     	;# 
   299  0498                     	;# 
   300  0499                     	;# 
   301  049A                     	;# 
   302  049B                     	;# 
   303  049C                     	;# 
   304  049D                     	;# 
   305  050C                     	;# 
   306  050C                     	;# 
   307  050D                     	;# 
   308  050E                     	;# 
   309  050F                     	;# 
   310  050F                     	;# 
   311  0510                     	;# 
   312  0511                     	;# 
   313  0512                     	;# 
   314  0512                     	;# 
   315  0513                     	;# 
   316  0514                     	;# 
   317  0515                     	;# 
   318  0515                     	;# 
   319  0516                     	;# 
   320  0517                     	;# 
   321  0518                     	;# 
   322  0519                     	;# 
   323  051A                     	;# 
   324  051B                     	;# 
   325  051C                     	;# 
   326  051D                     	;# 
   327  058C                     	;# 
   328  058C                     	;# 
   329  058D                     	;# 
   330  058E                     	;# 
   331  058F                     	;# 
   332  058F                     	;# 
   333  0590                     	;# 
   334  0591                     	;# 
   335  0592                     	;# 
   336  0593                     	;# 
   337  060C                     	;# 
   338  060D                     	;# 
   339  060E                     	;# 
   340  060F                     	;# 
   341  0610                     	;# 
   342  0611                     	;# 
   343  0612                     	;# 
   344  0613                     	;# 
   345  0614                     	;# 
   346  0616                     	;# 
   347  0617                     	;# 
   348  0618                     	;# 
   349  0619                     	;# 
   350  061A                     	;# 
   351  061B                     	;# 
   352  061C                     	;# 
   353  061D                     	;# 
   354  061E                     	;# 
   355  068C                     	;# 
   356  068D                     	;# 
   357  068E                     	;# 
   358  068F                     	;# 
   359  0690                     	;# 
   360  0691                     	;# 
   361  0692                     	;# 
   362  0693                     	;# 
   363  0694                     	;# 
   364  070C                     	;# 
   365  070D                     	;# 
   366  070E                     	;# 
   367  070F                     	;# 
   368  0710                     	;# 
   369  0711                     	;# 
   370  0712                     	;# 
   371  0713                     	;# 
   372  0714                     	;# 
   373  0716                     	;# 
   374  0717                     	;# 
   375  0718                     	;# 
   376  0719                     	;# 
   377  071A                     	;# 
   378  071B                     	;# 
   379  071C                     	;# 
   380  071D                     	;# 
   381  071E                     	;# 
   382  0796                     	;# 
   383  0797                     	;# 
   384  0798                     	;# 
   385  0799                     	;# 
   386  079A                     	;# 
   387  079B                     	;# 
   388  080C                     	;# 
   389  080D                     	;# 
   390  080E                     	;# 
   391  080F                     	;# 
   392  0810                     	;# 
   393  0811                     	;# 
   394  0812                     	;# 
   395  0813                     	;# 
   396  0814                     	;# 
   397  081A                     	;# 
   398  081B                     	;# 
   399  081C                     	;# 
   400  081D                     	;# 
   401  081E                     	;# 
   402  081F                     	;# 
   403  088C                     	;# 
   404  088D                     	;# 
   405  088E                     	;# 
   406  088F                     	;# 
   407  0890                     	;# 
   408  0891                     	;# 
   409  0892                     	;# 
   410  0893                     	;# 
   411  0895                     	;# 
   412  0896                     	;# 
   413  0897                     	;# 
   414  0898                     	;# 
   415  0899                     	;# 
   416  089A                     	;# 
   417  089B                     	;# 
   418  090C                     	;# 
   419  090E                     	;# 
   420  090F                     	;# 
   421  091F                     	;# 
   422  091F                     	;# 
   423  098F                     	;# 
   424  098F                     	;# 
   425  0990                     	;# 
   426  0991                     	;# 
   427  0992                     	;# 
   428  0993                     	;# 
   429  0994                     	;# 
   430  0995                     	;# 
   431  0996                     	;# 
   432  0997                     	;# 
   433  0E0F                     	;# 
   434  0E10                     	;# 
   435  0E11                     	;# 
   436  0E12                     	;# 
   437  0E13                     	;# 
   438  0E14                     	;# 
   439  0E15                     	;# 
   440  0E16                     	;# 
   441  0E17                     	;# 
   442  0E18                     	;# 
   443  0E19                     	;# 
   444  0E1A                     	;# 
   445  0E1B                     	;# 
   446  0E1C                     	;# 
   447  0E1D                     	;# 
   448  0E1E                     	;# 
   449  0E1F                     	;# 
   450  0E20                     	;# 
   451  0E21                     	;# 
   452  0E22                     	;# 
   453  0E23                     	;# 
   454  0E24                     	;# 
   455  0E25                     	;# 
   456  0E26                     	;# 
   457  0E27                     	;# 
   458  0E28                     	;# 
   459  0E29                     	;# 
   460  0E2A                     	;# 
   461  0E2B                     	;# 
   462  0E2C                     	;# 
   463  0E2D                     	;# 
   464  0E2E                     	;# 
   465  0E2F                     	;# 
   466  0E30                     	;# 
   467  0E31                     	;# 
   468  0E32                     	;# 
   469  0E33                     	;# 
   470  0E34                     	;# 
   471  0E35                     	;# 
   472  0E36                     	;# 
   473  0E37                     	;# 
   474  0E8F                     	;# 
   475  0E90                     	;# 
   476  0E91                     	;# 
   477  0E92                     	;# 
   478  0E93                     	;# 
   479  0E94                     	;# 
   480  0E95                     	;# 
   481  0E96                     	;# 
   482  0E97                     	;# 
   483  0E9C                     	;# 
   484  0E9D                     	;# 
   485  0E9E                     	;# 
   486  0EA1                     	;# 
   487  0EA2                     	;# 
   488  0EA3                     	;# 
   489  0EA4                     	;# 
   490  0EA5                     	;# 
   491  0EA9                     	;# 
   492  0EAA                     	;# 
   493  0EAB                     	;# 
   494  0EAC                     	;# 
   495  0EB1                     	;# 
   496  0EB2                     	;# 
   497  0EB3                     	;# 
   498  0EB8                     	;# 
   499  0EB9                     	;# 
   500  0EBA                     	;# 
   501  0EBB                     	;# 
   502  0EBC                     	;# 
   503  0EBD                     	;# 
   504  0EBE                     	;# 
   505  0EC3                     	;# 
   506  0EC5                     	;# 
   507  0EC6                     	;# 
   508  0EC7                     	;# 
   509  0EC8                     	;# 
   510  0EC9                     	;# 
   511  0ECA                     	;# 
   512  0ECB                     	;# 
   513  0ECC                     	;# 
   514  0F10                     	;# 
   515  0F11                     	;# 
   516  0F12                     	;# 
   517  0F13                     	;# 
   518  0F14                     	;# 
   519  0F15                     	;# 
   520  0F16                     	;# 
   521  0F17                     	;# 
   522  0F18                     	;# 
   523  0F19                     	;# 
   524  0F1A                     	;# 
   525  0F1B                     	;# 
   526  0F1C                     	;# 
   527  0F1D                     	;# 
   528  0F1E                     	;# 
   529  0F1F                     	;# 
   530  0F20                     	;# 
   531  0F21                     	;# 
   532  0F22                     	;# 
   533  0F23                     	;# 
   534  0F24                     	;# 
   535  0F25                     	;# 
   536  0F26                     	;# 
   537  0F27                     	;# 
   538  0F38                     	;# 
   539  0F39                     	;# 
   540  0F3A                     	;# 
   541  0F3B                     	;# 
   542  0F3C                     	;# 
   543  0F3D                     	;# 
   544  0F3E                     	;# 
   545  0F3F                     	;# 
   546  0F40                     	;# 
   547  0F41                     	;# 
   548  0F43                     	;# 
   549  0F44                     	;# 
   550  0F45                     	;# 
   551  0F46                     	;# 
   552  0F47                     	;# 
   553  0F48                     	;# 
   554  0F49                     	;# 
   555  0F4A                     	;# 
   556  0F4B                     	;# 
   557  0F4C                     	;# 
   558  0F4E                     	;# 
   559  0F4F                     	;# 
   560  0F50                     	;# 
   561  0F51                     	;# 
   562  0F52                     	;# 
   563  0F53                     	;# 
   564  0F54                     	;# 
   565  0F55                     	;# 
   566  0F56                     	;# 
   567  0F57                     	;# 
   568  0F65                     	;# 
   569  0F68                     	;# 
   570  0F69                     	;# 
   571  0F6A                     	;# 
   572  0F6B                     	;# 
   573  0FE4                     	;# 
   574  0FE5                     	;# 
   575  0FE6                     	;# 
   576  0FE7                     	;# 
   577  0FE8                     	;# 
   578  0FE9                     	;# 
   579  0FEA                     	;# 
   580  0FEB                     	;# 
   581  0FED                     	;# 
   582  0FEE                     	;# 
   583  0FEF                     	;# 
   584  0000                     	;# 
   585  0001                     	;# 
   586  0002                     	;# 
   587  0003                     	;# 
   588  0004                     	;# 
   589  0005                     	;# 
   590  0006                     	;# 
   591  0007                     	;# 
   592  0008                     	;# 
   593  0009                     	;# 
   594  000A                     	;# 
   595  000B                     	;# 
   596  000C                     	;# 
   597  000D                     	;# 
   598  000E                     	;# 
   599  0010                     	;# 
   600  0011                     	;# 
   601  0012                     	;# 
   602  0013                     	;# 
   603  0016                     	;# 
   604  0017                     	;# 
   605  0018                     	;# 
   606  001C                     	;# 
   607  001C                     	;# 
   608  001D                     	;# 
   609  001D                     	;# 
   610  001E                     	;# 
   611  001F                     	;# 
   612  008C                     	;# 
   613  008C                     	;# 
   614  008D                     	;# 
   615  008E                     	;# 
   616  008E                     	;# 
   617  008F                     	;# 
   618  0090                     	;# 
   619  0090                     	;# 
   620  0091                     	;# 
   621  0093                     	;# 
   622  0094                     	;# 
   623  0095                     	;# 
   624  0096                     	;# 
   625  0097                     	;# 
   626  0098                     	;# 
   627  0099                     	;# 
   628  009A                     	;# 
   629  009B                     	;# 
   630  009C                     	;# 
   631  009D                     	;# 
   632  009E                     	;# 
   633  010C                     	;# 
   634  010D                     	;# 
   635  010E                     	;# 
   636  010E                     	;# 
   637  010F                     	;# 
   638  0110                     	;# 
   639  0110                     	;# 
   640  0111                     	;# 
   641  0112                     	;# 
   642  0112                     	;# 
   643  0113                     	;# 
   644  0114                     	;# 
   645  0114                     	;# 
   646  0115                     	;# 
   647  0116                     	;# 
   648  0116                     	;# 
   649  0117                     	;# 
   650  0119                     	;# 
   651  0119                     	;# 
   652  0119                     	;# 
   653  011A                     	;# 
   654  011A                     	;# 
   655  011A                     	;# 
   656  011B                     	;# 
   657  011B                     	;# 
   658  011B                     	;# 
   659  011B                     	;# 
   660  011B                     	;# 
   661  011C                     	;# 
   662  011C                     	;# 
   663  011C                     	;# 
   664  011D                     	;# 
   665  011D                     	;# 
   666  011D                     	;# 
   667  011E                     	;# 
   668  011E                     	;# 
   669  011E                     	;# 
   670  011F                     	;# 
   671  011F                     	;# 
   672  011F                     	;# 
   673  011F                     	;# 
   674  011F                     	;# 
   675  018C                     	;# 
   676  018D                     	;# 
   677  018E                     	;# 
   678  018F                     	;# 
   679  0190                     	;# 
   680  0191                     	;# 
   681  0192                     	;# 
   682  0196                     	;# 
   683  0197                     	;# 
   684  0198                     	;# 
   685  0199                     	;# 
   686  019A                     	;# 
   687  019B                     	;# 
   688  019C                     	;# 
   689  020C                     	;# 
   690  020C                     	;# 
   691  020D                     	;# 
   692  020E                     	;# 
   693  020F                     	;# 
   694  020F                     	;# 
   695  0210                     	;# 
   696  0210                     	;# 
   697  0211                     	;# 
   698  0211                     	;# 
   699  0212                     	;# 
   700  0212                     	;# 
   701  0213                     	;# 
   702  0214                     	;# 
   703  0215                     	;# 
   704  0215                     	;# 
   705  0216                     	;# 
   706  0216                     	;# 
   707  0217                     	;# 
   708  0217                     	;# 
   709  0218                     	;# 
   710  0218                     	;# 
   711  0219                     	;# 
   712  021A                     	;# 
   713  021B                     	;# 
   714  021B                     	;# 
   715  021C                     	;# 
   716  021C                     	;# 
   717  021D                     	;# 
   718  021D                     	;# 
   719  021E                     	;# 
   720  021F                     	;# 
   721  028C                     	;# 
   722  028C                     	;# 
   723  028D                     	;# 
   724  028D                     	;# 
   725  028E                     	;# 
   726  028F                     	;# 
   727  0290                     	;# 
   728  0290                     	;# 
   729  0291                     	;# 
   730  0292                     	;# 
   731  0292                     	;# 
   732  0293                     	;# 
   733  0293                     	;# 
   734  0294                     	;# 
   735  0295                     	;# 
   736  0296                     	;# 
   737  0296                     	;# 
   738  0297                     	;# 
   739  0298                     	;# 
   740  0298                     	;# 
   741  0299                     	;# 
   742  0299                     	;# 
   743  029A                     	;# 
   744  029B                     	;# 
   745  029C                     	;# 
   746  029C                     	;# 
   747  029D                     	;# 
   748  030C                     	;# 
   749  030C                     	;# 
   750  030D                     	;# 
   751  030E                     	;# 
   752  030F                     	;# 
   753  0310                     	;# 
   754  0310                     	;# 
   755  0311                     	;# 
   756  0312                     	;# 
   757  0313                     	;# 
   758  0314                     	;# 
   759  0314                     	;# 
   760  0315                     	;# 
   761  0316                     	;# 
   762  0317                     	;# 
   763  0318                     	;# 
   764  0318                     	;# 
   765  0319                     	;# 
   766  031A                     	;# 
   767  031B                     	;# 
   768  031C                     	;# 
   769  031C                     	;# 
   770  031D                     	;# 
   771  031E                     	;# 
   772  031F                     	;# 
   773  038C                     	;# 
   774  038D                     	;# 
   775  038E                     	;# 
   776  0390                     	;# 
   777  0391                     	;# 
   778  0392                     	;# 
   779  040C                     	;# 
   780  040D                     	;# 
   781  040E                     	;# 
   782  040F                     	;# 
   783  0410                     	;# 
   784  0411                     	;# 
   785  0416                     	;# 
   786  0416                     	;# 
   787  0417                     	;# 
   788  0418                     	;# 
   789  0418                     	;# 
   790  0419                     	;# 
   791  041A                     	;# 
   792  041A                     	;# 
   793  041B                     	;# 
   794  041C                     	;# 
   795  041C                     	;# 
   796  041D                     	;# 
   797  041E                     	;# 
   798  041F                     	;# 
   799  048C                     	;# 
   800  048C                     	;# 
   801  048D                     	;# 
   802  048E                     	;# 
   803  048F                     	;# 
   804  048F                     	;# 
   805  0490                     	;# 
   806  0491                     	;# 
   807  0492                     	;# 
   808  0492                     	;# 
   809  0493                     	;# 
   810  0494                     	;# 
   811  0495                     	;# 
   812  0495                     	;# 
   813  0496                     	;# 
   814  0497                     	;# 
   815  0498                     	;# 
   816  0499                     	;# 
   817  049A                     	;# 
   818  049B                     	;# 
   819  049C                     	;# 
   820  049D                     	;# 
   821  050C                     	;# 
   822  050C                     	;# 
   823  050D                     	;# 
   824  050E                     	;# 
   825  050F                     	;# 
   826  050F                     	;# 
   827  0510                     	;# 
   828  0511                     	;# 
   829  0512                     	;# 
   830  0512                     	;# 
   831  0513                     	;# 
   832  0514                     	;# 
   833  0515                     	;# 
   834  0515                     	;# 
   835  0516                     	;# 
   836  0517                     	;# 
   837  0518                     	;# 
   838  0519                     	;# 
   839  051A                     	;# 
   840  051B                     	;# 
   841  051C                     	;# 
   842  051D                     	;# 
   843  058C                     	;# 
   844  058C                     	;# 
   845  058D                     	;# 
   846  058E                     	;# 
   847  058F                     	;# 
   848  058F                     	;# 
   849  0590                     	;# 
   850  0591                     	;# 
   851  0592                     	;# 
   852  0593                     	;# 
   853  060C                     	;# 
   854  060D                     	;# 
   855  060E                     	;# 
   856  060F                     	;# 
   857  0610                     	;# 
   858  0611                     	;# 
   859  0612                     	;# 
   860  0613                     	;# 
   861  0614                     	;# 
   862  0616                     	;# 
   863  0617                     	;# 
   864  0618                     	;# 
   865  0619                     	;# 
   866  061A                     	;# 
   867  061B                     	;# 
   868  061C                     	;# 
   869  061D                     	;# 
   870  061E                     	;# 
   871  068C                     	;# 
   872  068D                     	;# 
   873  068E                     	;# 
   874  068F                     	;# 
   875  0690                     	;# 
   876  0691                     	;# 
   877  0692                     	;# 
   878  0693                     	;# 
   879  0694                     	;# 
   880  070C                     	;# 
   881  070D                     	;# 
   882  070E                     	;# 
   883  070F                     	;# 
   884  0710                     	;# 
   885  0711                     	;# 
   886  0712                     	;# 
   887  0713                     	;# 
   888  0714                     	;# 
   889  0716                     	;# 
   890  0717                     	;# 
   891  0718                     	;# 
   892  0719                     	;# 
   893  071A                     	;# 
   894  071B                     	;# 
   895  071C                     	;# 
   896  071D                     	;# 
   897  071E                     	;# 
   898  0796                     	;# 
   899  0797                     	;# 
   900  0798                     	;# 
   901  0799                     	;# 
   902  079A                     	;# 
   903  079B                     	;# 
   904  080C                     	;# 
   905  080D                     	;# 
   906  080E                     	;# 
   907  080F                     	;# 
   908  0810                     	;# 
   909  0811                     	;# 
   910  0812                     	;# 
   911  0813                     	;# 
   912  0814                     	;# 
   913  081A                     	;# 
   914  081B                     	;# 
   915  081C                     	;# 
   916  081D                     	;# 
   917  081E                     	;# 
   918  081F                     	;# 
   919  088C                     	;# 
   920  088D                     	;# 
   921  088E                     	;# 
   922  088F                     	;# 
   923  0890                     	;# 
   924  0891                     	;# 
   925  0892                     	;# 
   926  0893                     	;# 
   927  0895                     	;# 
   928  0896                     	;# 
   929  0897                     	;# 
   930  0898                     	;# 
   931  0899                     	;# 
   932  089A                     	;# 
   933  089B                     	;# 
   934  090C                     	;# 
   935  090E                     	;# 
   936  090F                     	;# 
   937  091F                     	;# 
   938  091F                     	;# 
   939  098F                     	;# 
   940  098F                     	;# 
   941  0990                     	;# 
   942  0991                     	;# 
   943  0992                     	;# 
   944  0993                     	;# 
   945  0994                     	;# 
   946  0995                     	;# 
   947  0996                     	;# 
   948  0997                     	;# 
   949  0E0F                     	;# 
   950  0E10                     	;# 
   951  0E11                     	;# 
   952  0E12                     	;# 
   953  0E13                     	;# 
   954  0E14                     	;# 
   955  0E15                     	;# 
   956  0E16                     	;# 
   957  0E17                     	;# 
   958  0E18                     	;# 
   959  0E19                     	;# 
   960  0E1A                     	;# 
   961  0E1B                     	;# 
   962  0E1C                     	;# 
   963  0E1D                     	;# 
   964  0E1E                     	;# 
   965  0E1F                     	;# 
   966  0E20                     	;# 
   967  0E21                     	;# 
   968  0E22                     	;# 
   969  0E23                     	;# 
   970  0E24                     	;# 
   971  0E25                     	;# 
   972  0E26                     	;# 
   973  0E27                     	;# 
   974  0E28                     	;# 
   975  0E29                     	;# 
   976  0E2A                     	;# 
   977  0E2B                     	;# 
   978  0E2C                     	;# 
   979  0E2D                     	;# 
   980  0E2E                     	;# 
   981  0E2F                     	;# 
   982  0E30                     	;# 
   983  0E31                     	;# 
   984  0E32                     	;# 
   985  0E33                     	;# 
   986  0E34                     	;# 
   987  0E35                     	;# 
   988  0E36                     	;# 
   989  0E37                     	;# 
   990  0E8F                     	;# 
   991  0E90                     	;# 
   992  0E91                     	;# 
   993  0E92                     	;# 
   994  0E93                     	;# 
   995  0E94                     	;# 
   996  0E95                     	;# 
   997  0E96                     	;# 
   998  0E97                     	;# 
   999  0E9C                     	;# 
  1000  0E9D                     	;# 
  1001  0E9E                     	;# 
  1002  0EA1                     	;# 
  1003  0EA2                     	;# 
  1004  0EA3                     	;# 
  1005  0EA4                     	;# 
  1006  0EA5                     	;# 
  1007  0EA9                     	;# 
  1008  0EAA                     	;# 
  1009  0EAB                     	;# 
  1010  0EAC                     	;# 
  1011  0EB1                     	;# 
  1012  0EB2                     	;# 
  1013  0EB3                     	;# 
  1014  0EB8                     	;# 
  1015  0EB9                     	;# 
  1016  0EBA                     	;# 
  1017  0EBB                     	;# 
  1018  0EBC                     	;# 
  1019  0EBD                     	;# 
  1020  0EBE                     	;# 
  1021  0EC3                     	;# 
  1022  0EC5                     	;# 
  1023  0EC6                     	;# 
  1024  0EC7                     	;# 
  1025  0EC8                     	;# 
  1026  0EC9                     	;# 
  1027  0ECA                     	;# 
  1028  0ECB                     	;# 
  1029  0ECC                     	;# 
  1030  0F10                     	;# 
  1031  0F11                     	;# 
  1032  0F12                     	;# 
  1033  0F13                     	;# 
  1034  0F14                     	;# 
  1035  0F15                     	;# 
  1036  0F16                     	;# 
  1037  0F17                     	;# 
  1038  0F18                     	;# 
  1039  0F19                     	;# 
  1040  0F1A                     	;# 
  1041  0F1B                     	;# 
  1042  0F1C                     	;# 
  1043  0F1D                     	;# 
  1044  0F1E                     	;# 
  1045  0F1F                     	;# 
  1046  0F20                     	;# 
  1047  0F21                     	;# 
  1048  0F22                     	;# 
  1049  0F23                     	;# 
  1050  0F24                     	;# 
  1051  0F25                     	;# 
  1052  0F26                     	;# 
  1053  0F27                     	;# 
  1054  0F38                     	;# 
  1055  0F39                     	;# 
  1056  0F3A                     	;# 
  1057  0F3B                     	;# 
  1058  0F3C                     	;# 
  1059  0F3D                     	;# 
  1060  0F3E                     	;# 
  1061  0F3F                     	;# 
  1062  0F40                     	;# 
  1063  0F41                     	;# 
  1064  0F43                     	;# 
  1065  0F44                     	;# 
  1066  0F45                     	;# 
  1067  0F46                     	;# 
  1068  0F47                     	;# 
  1069  0F48                     	;# 
  1070  0F49                     	;# 
  1071  0F4A                     	;# 
  1072  0F4B                     	;# 
  1073  0F4C                     	;# 
  1074  0F4E                     	;# 
  1075  0F4F                     	;# 
  1076  0F50                     	;# 
  1077  0F51                     	;# 
  1078  0F52                     	;# 
  1079  0F53                     	;# 
  1080  0F54                     	;# 
  1081  0F55                     	;# 
  1082  0F56                     	;# 
  1083  0F57                     	;# 
  1084  0F65                     	;# 
  1085  0F68                     	;# 
  1086  0F69                     	;# 
  1087  0F6A                     	;# 
  1088  0F6B                     	;# 
  1089  0FE4                     	;# 
  1090  0FE5                     	;# 
  1091  0FE6                     	;# 
  1092  0FE7                     	;# 
  1093  0FE8                     	;# 
  1094  0FE9                     	;# 
  1095  0FEA                     	;# 
  1096  0FEB                     	;# 
  1097  0FED                     	;# 
  1098  0FEE                     	;# 
  1099  0FEF                     	;# 
  1100  0000                     	;# 
  1101  0001                     	;# 
  1102  0002                     	;# 
  1103  0003                     	;# 
  1104  0004                     	;# 
  1105  0005                     	;# 
  1106  0006                     	;# 
  1107  0007                     	;# 
  1108  0008                     	;# 
  1109  0009                     	;# 
  1110  000A                     	;# 
  1111  000B                     	;# 
  1112  000C                     	;# 
  1113  000D                     	;# 
  1114  000E                     	;# 
  1115  0010                     	;# 
  1116  0011                     	;# 
  1117  0012                     	;# 
  1118  0013                     	;# 
  1119  0016                     	;# 
  1120  0017                     	;# 
  1121  0018                     	;# 
  1122  001C                     	;# 
  1123  001C                     	;# 
  1124  001D                     	;# 
  1125  001D                     	;# 
  1126  001E                     	;# 
  1127  001F                     	;# 
  1128  008C                     	;# 
  1129  008C                     	;# 
  1130  008D                     	;# 
  1131  008E                     	;# 
  1132  008E                     	;# 
  1133  008F                     	;# 
  1134  0090                     	;# 
  1135  0090                     	;# 
  1136  0091                     	;# 
  1137  0093                     	;# 
  1138  0094                     	;# 
  1139  0095                     	;# 
  1140  0096                     	;# 
  1141  0097                     	;# 
  1142  0098                     	;# 
  1143  0099                     	;# 
  1144  009A                     	;# 
  1145  009B                     	;# 
  1146  009C                     	;# 
  1147  009D                     	;# 
  1148  009E                     	;# 
  1149  010C                     	;# 
  1150  010D                     	;# 
  1151  010E                     	;# 
  1152  010E                     	;# 
  1153  010F                     	;# 
  1154  0110                     	;# 
  1155  0110                     	;# 
  1156  0111                     	;# 
  1157  0112                     	;# 
  1158  0112                     	;# 
  1159  0113                     	;# 
  1160  0114                     	;# 
  1161  0114                     	;# 
  1162  0115                     	;# 
  1163  0116                     	;# 
  1164  0116                     	;# 
  1165  0117                     	;# 
  1166  0119                     	;# 
  1167  0119                     	;# 
  1168  0119                     	;# 
  1169  011A                     	;# 
  1170  011A                     	;# 
  1171  011A                     	;# 
  1172  011B                     	;# 
  1173  011B                     	;# 
  1174  011B                     	;# 
  1175  011B                     	;# 
  1176  011B                     	;# 
  1177  011C                     	;# 
  1178  011C                     	;# 
  1179  011C                     	;# 
  1180  011D                     	;# 
  1181  011D                     	;# 
  1182  011D                     	;# 
  1183  011E                     	;# 
  1184  011E                     	;# 
  1185  011E                     	;# 
  1186  011F                     	;# 
  1187  011F                     	;# 
  1188  011F                     	;# 
  1189  011F                     	;# 
  1190  011F                     	;# 
  1191  018C                     	;# 
  1192  018D                     	;# 
  1193  018E                     	;# 
  1194  018F                     	;# 
  1195  0190                     	;# 
  1196  0191                     	;# 
  1197  0192                     	;# 
  1198  0196                     	;# 
  1199  0197                     	;# 
  1200  0198                     	;# 
  1201  0199                     	;# 
  1202  019A                     	;# 
  1203  019B                     	;# 
  1204  019C                     	;# 
  1205  020C                     	;# 
  1206  020C                     	;# 
  1207  020D                     	;# 
  1208  020E                     	;# 
  1209  020F                     	;# 
  1210  020F                     	;# 
  1211  0210                     	;# 
  1212  0210                     	;# 
  1213  0211                     	;# 
  1214  0211                     	;# 
  1215  0212                     	;# 
  1216  0212                     	;# 
  1217  0213                     	;# 
  1218  0214                     	;# 
  1219  0215                     	;# 
  1220  0215                     	;# 
  1221  0216                     	;# 
  1222  0216                     	;# 
  1223  0217                     	;# 
  1224  0217                     	;# 
  1225  0218                     	;# 
  1226  0218                     	;# 
  1227  0219                     	;# 
  1228  021A                     	;# 
  1229  021B                     	;# 
  1230  021B                     	;# 
  1231  021C                     	;# 
  1232  021C                     	;# 
  1233  021D                     	;# 
  1234  021D                     	;# 
  1235  021E                     	;# 
  1236  021F                     	;# 
  1237  028C                     	;# 
  1238  028C                     	;# 
  1239  028D                     	;# 
  1240  028D                     	;# 
  1241  028E                     	;# 
  1242  028F                     	;# 
  1243  0290                     	;# 
  1244  0290                     	;# 
  1245  0291                     	;# 
  1246  0292                     	;# 
  1247  0292                     	;# 
  1248  0293                     	;# 
  1249  0293                     	;# 
  1250  0294                     	;# 
  1251  0295                     	;# 
  1252  0296                     	;# 
  1253  0296                     	;# 
  1254  0297                     	;# 
  1255  0298                     	;# 
  1256  0298                     	;# 
  1257  0299                     	;# 
  1258  0299                     	;# 
  1259  029A                     	;# 
  1260  029B                     	;# 
  1261  029C                     	;# 
  1262  029C                     	;# 
  1263  029D                     	;# 
  1264  030C                     	;# 
  1265  030C                     	;# 
  1266  030D                     	;# 
  1267  030E                     	;# 
  1268  030F                     	;# 
  1269  0310                     	;# 
  1270  0310                     	;# 
  1271  0311                     	;# 
  1272  0312                     	;# 
  1273  0313                     	;# 
  1274  0314                     	;# 
  1275  0314                     	;# 
  1276  0315                     	;# 
  1277  0316                     	;# 
  1278  0317                     	;# 
  1279  0318                     	;# 
  1280  0318                     	;# 
  1281  0319                     	;# 
  1282  031A                     	;# 
  1283  031B                     	;# 
  1284  031C                     	;# 
  1285  031C                     	;# 
  1286  031D                     	;# 
  1287  031E                     	;# 
  1288  031F                     	;# 
  1289  038C                     	;# 
  1290  038D                     	;# 
  1291  038E                     	;# 
  1292  0390                     	;# 
  1293  0391                     	;# 
  1294  0392                     	;# 
  1295  040C                     	;# 
  1296  040D                     	;# 
  1297  040E                     	;# 
  1298  040F                     	;# 
  1299  0410                     	;# 
  1300  0411                     	;# 
  1301  0416                     	;# 
  1302  0416                     	;# 
  1303  0417                     	;# 
  1304  0418                     	;# 
  1305  0418                     	;# 
  1306  0419                     	;# 
  1307  041A                     	;# 
  1308  041A                     	;# 
  1309  041B                     	;# 
  1310  041C                     	;# 
  1311  041C                     	;# 
  1312  041D                     	;# 
  1313  041E                     	;# 
  1314  041F                     	;# 
  1315  048C                     	;# 
  1316  048C                     	;# 
  1317  048D                     	;# 
  1318  048E                     	;# 
  1319  048F                     	;# 
  1320  048F                     	;# 
  1321  0490                     	;# 
  1322  0491                     	;# 
  1323  0492                     	;# 
  1324  0492                     	;# 
  1325  0493                     	;# 
  1326  0494                     	;# 
  1327  0495                     	;# 
  1328  0495                     	;# 
  1329  0496                     	;# 
  1330  0497                     	;# 
  1331  0498                     	;# 
  1332  0499                     	;# 
  1333  049A                     	;# 
  1334  049B                     	;# 
  1335  049C                     	;# 
  1336  049D                     	;# 
  1337  050C                     	;# 
  1338  050C                     	;# 
  1339  050D                     	;# 
  1340  050E                     	;# 
  1341  050F                     	;# 
  1342  050F                     	;# 
  1343  0510                     	;# 
  1344  0511                     	;# 
  1345  0512                     	;# 
  1346  0512                     	;# 
  1347  0513                     	;# 
  1348  0514                     	;# 
  1349  0515                     	;# 
  1350  0515                     	;# 
  1351  0516                     	;# 
  1352  0517                     	;# 
  1353  0518                     	;# 
  1354  0519                     	;# 
  1355  051A                     	;# 
  1356  051B                     	;# 
  1357  051C                     	;# 
  1358  051D                     	;# 
  1359  058C                     	;# 
  1360  058C                     	;# 
  1361  058D                     	;# 
  1362  058E                     	;# 
  1363  058F                     	;# 
  1364  058F                     	;# 
  1365  0590                     	;# 
  1366  0591                     	;# 
  1367  0592                     	;# 
  1368  0593                     	;# 
  1369  060C                     	;# 
  1370  060D                     	;# 
  1371  060E                     	;# 
  1372  060F                     	;# 
  1373  0610                     	;# 
  1374  0611                     	;# 
  1375  0612                     	;# 
  1376  0613                     	;# 
  1377  0614                     	;# 
  1378  0616                     	;# 
  1379  0617                     	;# 
  1380  0618                     	;# 
  1381  0619                     	;# 
  1382  061A                     	;# 
  1383  061B                     	;# 
  1384  061C                     	;# 
  1385  061D                     	;# 
  1386  061E                     	;# 
  1387  068C                     	;# 
  1388  068D                     	;# 
  1389  068E                     	;# 
  1390  068F                     	;# 
  1391  0690                     	;# 
  1392  0691                     	;# 
  1393  0692                     	;# 
  1394  0693                     	;# 
  1395  0694                     	;# 
  1396  070C                     	;# 
  1397  070D                     	;# 
  1398  070E                     	;# 
  1399  070F                     	;# 
  1400  0710                     	;# 
  1401  0711                     	;# 
  1402  0712                     	;# 
  1403  0713                     	;# 
  1404  0714                     	;# 
  1405  0716                     	;# 
  1406  0717                     	;# 
  1407  0718                     	;# 
  1408  0719                     	;# 
  1409  071A                     	;# 
  1410  071B                     	;# 
  1411  071C                     	;# 
  1412  071D                     	;# 
  1413  071E                     	;# 
  1414  0796                     	;# 
  1415  0797                     	;# 
  1416  0798                     	;# 
  1417  0799                     	;# 
  1418  079A                     	;# 
  1419  079B                     	;# 
  1420  080C                     	;# 
  1421  080D                     	;# 
  1422  080E                     	;# 
  1423  080F                     	;# 
  1424  0810                     	;# 
  1425  0811                     	;# 
  1426  0812                     	;# 
  1427  0813                     	;# 
  1428  0814                     	;# 
  1429  081A                     	;# 
  1430  081B                     	;# 
  1431  081C                     	;# 
  1432  081D                     	;# 
  1433  081E                     	;# 
  1434  081F                     	;# 
  1435  088C                     	;# 
  1436  088D                     	;# 
  1437  088E                     	;# 
  1438  088F                     	;# 
  1439  0890                     	;# 
  1440  0891                     	;# 
  1441  0892                     	;# 
  1442  0893                     	;# 
  1443  0895                     	;# 
  1444  0896                     	;# 
  1445  0897                     	;# 
  1446  0898                     	;# 
  1447  0899                     	;# 
  1448  089A                     	;# 
  1449  089B                     	;# 
  1450  090C                     	;# 
  1451  090E                     	;# 
  1452  090F                     	;# 
  1453  091F                     	;# 
  1454  091F                     	;# 
  1455  098F                     	;# 
  1456  098F                     	;# 
  1457  0990                     	;# 
  1458  0991                     	;# 
  1459  0992                     	;# 
  1460  0993                     	;# 
  1461  0994                     	;# 
  1462  0995                     	;# 
  1463  0996                     	;# 
  1464  0997                     	;# 
  1465  0E0F                     	;# 
  1466  0E10                     	;# 
  1467  0E11                     	;# 
  1468  0E12                     	;# 
  1469  0E13                     	;# 
  1470  0E14                     	;# 
  1471  0E15                     	;# 
  1472  0E16                     	;# 
  1473  0E17                     	;# 
  1474  0E18                     	;# 
  1475  0E19                     	;# 
  1476  0E1A                     	;# 
  1477  0E1B                     	;# 
  1478  0E1C                     	;# 
  1479  0E1D                     	;# 
  1480  0E1E                     	;# 
  1481  0E1F                     	;# 
  1482  0E20                     	;# 
  1483  0E21                     	;# 
  1484  0E22                     	;# 
  1485  0E23                     	;# 
  1486  0E24                     	;# 
  1487  0E25                     	;# 
  1488  0E26                     	;# 
  1489  0E27                     	;# 
  1490  0E28                     	;# 
  1491  0E29                     	;# 
  1492  0E2A                     	;# 
  1493  0E2B                     	;# 
  1494  0E2C                     	;# 
  1495  0E2D                     	;# 
  1496  0E2E                     	;# 
  1497  0E2F                     	;# 
  1498  0E30                     	;# 
  1499  0E31                     	;# 
  1500  0E32                     	;# 
  1501  0E33                     	;# 
  1502  0E34                     	;# 
  1503  0E35                     	;# 
  1504  0E36                     	;# 
  1505  0E37                     	;# 
  1506  0E8F                     	;# 
  1507  0E90                     	;# 
  1508  0E91                     	;# 
  1509  0E92                     	;# 
  1510  0E93                     	;# 
  1511  0E94                     	;# 
  1512  0E95                     	;# 
  1513  0E96                     	;# 
  1514  0E97                     	;# 
  1515  0E9C                     	;# 
  1516  0E9D                     	;# 
  1517  0E9E                     	;# 
  1518  0EA1                     	;# 
  1519  0EA2                     	;# 
  1520  0EA3                     	;# 
  1521  0EA4                     	;# 
  1522  0EA5                     	;# 
  1523  0EA9                     	;# 
  1524  0EAA                     	;# 
  1525  0EAB                     	;# 
  1526  0EAC                     	;# 
  1527  0EB1                     	;# 
  1528  0EB2                     	;# 
  1529  0EB3                     	;# 
  1530  0EB8                     	;# 
  1531  0EB9                     	;# 
  1532  0EBA                     	;# 
  1533  0EBB                     	;# 
  1534  0EBC                     	;# 
  1535  0EBD                     	;# 
  1536  0EBE                     	;# 
  1537  0EC3                     	;# 
  1538  0EC5                     	;# 
  1539  0EC6                     	;# 
  1540  0EC7                     	;# 
  1541  0EC8                     	;# 
  1542  0EC9                     	;# 
  1543  0ECA                     	;# 
  1544  0ECB                     	;# 
  1545  0ECC                     	;# 
  1546  0F10                     	;# 
  1547  0F11                     	;# 
  1548  0F12                     	;# 
  1549  0F13                     	;# 
  1550  0F14                     	;# 
  1551  0F15                     	;# 
  1552  0F16                     	;# 
  1553  0F17                     	;# 
  1554  0F18                     	;# 
  1555  0F19                     	;# 
  1556  0F1A                     	;# 
  1557  0F1B                     	;# 
  1558  0F1C                     	;# 
  1559  0F1D                     	;# 
  1560  0F1E                     	;# 
  1561  0F1F                     	;# 
  1562  0F20                     	;# 
  1563  0F21                     	;# 
  1564  0F22                     	;# 
  1565  0F23                     	;# 
  1566  0F24                     	;# 
  1567  0F25                     	;# 
  1568  0F26                     	;# 
  1569  0F27                     	;# 
  1570  0F38                     	;# 
  1571  0F39                     	;# 
  1572  0F3A                     	;# 
  1573  0F3B                     	;# 
  1574  0F3C                     	;# 
  1575  0F3D                     	;# 
  1576  0F3E                     	;# 
  1577  0F3F                     	;# 
  1578  0F40                     	;# 
  1579  0F41                     	;# 
  1580  0F43                     	;# 
  1581  0F44                     	;# 
  1582  0F45                     	;# 
  1583  0F46                     	;# 
  1584  0F47                     	;# 
  1585  0F48                     	;# 
  1586  0F49                     	;# 
  1587  0F4A                     	;# 
  1588  0F4B                     	;# 
  1589  0F4C                     	;# 
  1590  0F4E                     	;# 
  1591  0F4F                     	;# 
  1592  0F50                     	;# 
  1593  0F51                     	;# 
  1594  0F52                     	;# 
  1595  0F53                     	;# 
  1596  0F54                     	;# 
  1597  0F55                     	;# 
  1598  0F56                     	;# 
  1599  0F57                     	;# 
  1600  0F65                     	;# 
  1601  0F68                     	;# 
  1602  0F69                     	;# 
  1603  0F6A                     	;# 
  1604  0F6B                     	;# 
  1605  0FE4                     	;# 
  1606  0FE5                     	;# 
  1607  0FE6                     	;# 
  1608  0FE7                     	;# 
  1609  0FE8                     	;# 
  1610  0FE9                     	;# 
  1611  0FEA                     	;# 
  1612  0FEB                     	;# 
  1613  0FED                     	;# 
  1614  0FEE                     	;# 
  1615  0FEF                     	;# 
  1616  0000                     	;# 
  1617  0001                     	;# 
  1618  0002                     	;# 
  1619  0003                     	;# 
  1620  0004                     	;# 
  1621  0005                     	;# 
  1622  0006                     	;# 
  1623  0007                     	;# 
  1624  0008                     	;# 
  1625  0009                     	;# 
  1626  000A                     	;# 
  1627  000B                     	;# 
  1628  000C                     	;# 
  1629  000D                     	;# 
  1630  000E                     	;# 
  1631  0010                     	;# 
  1632  0011                     	;# 
  1633  0012                     	;# 
  1634  0013                     	;# 
  1635  0016                     	;# 
  1636  0017                     	;# 
  1637  0018                     	;# 
  1638  001C                     	;# 
  1639  001C                     	;# 
  1640  001D                     	;# 
  1641  001D                     	;# 
  1642  001E                     	;# 
  1643  001F                     	;# 
  1644  008C                     	;# 
  1645  008C                     	;# 
  1646  008D                     	;# 
  1647  008E                     	;# 
  1648  008E                     	;# 
  1649  008F                     	;# 
  1650  0090                     	;# 
  1651  0090                     	;# 
  1652  0091                     	;# 
  1653  0093                     	;# 
  1654  0094                     	;# 
  1655  0095                     	;# 
  1656  0096                     	;# 
  1657  0097                     	;# 
  1658  0098                     	;# 
  1659  0099                     	;# 
  1660  009A                     	;# 
  1661  009B                     	;# 
  1662  009C                     	;# 
  1663  009D                     	;# 
  1664  009E                     	;# 
  1665  010C                     	;# 
  1666  010D                     	;# 
  1667  010E                     	;# 
  1668  010E                     	;# 
  1669  010F                     	;# 
  1670  0110                     	;# 
  1671  0110                     	;# 
  1672  0111                     	;# 
  1673  0112                     	;# 
  1674  0112                     	;# 
  1675  0113                     	;# 
  1676  0114                     	;# 
  1677  0114                     	;# 
  1678  0115                     	;# 
  1679  0116                     	;# 
  1680  0116                     	;# 
  1681  0117                     	;# 
  1682  0119                     	;# 
  1683  0119                     	;# 
  1684  0119                     	;# 
  1685  011A                     	;# 
  1686  011A                     	;# 
  1687  011A                     	;# 
  1688  011B                     	;# 
  1689  011B                     	;# 
  1690  011B                     	;# 
  1691  011B                     	;# 
  1692  011B                     	;# 
  1693  011C                     	;# 
  1694  011C                     	;# 
  1695  011C                     	;# 
  1696  011D                     	;# 
  1697  011D                     	;# 
  1698  011D                     	;# 
  1699  011E                     	;# 
  1700  011E                     	;# 
  1701  011E                     	;# 
  1702  011F                     	;# 
  1703  011F                     	;# 
  1704  011F                     	;# 
  1705  011F                     	;# 
  1706  011F                     	;# 
  1707  018C                     	;# 
  1708  018D                     	;# 
  1709  018E                     	;# 
  1710  018F                     	;# 
  1711  0190                     	;# 
  1712  0191                     	;# 
  1713  0192                     	;# 
  1714  0196                     	;# 
  1715  0197                     	;# 
  1716  0198                     	;# 
  1717  0199                     	;# 
  1718  019A                     	;# 
  1719  019B                     	;# 
  1720  019C                     	;# 
  1721  020C                     	;# 
  1722  020C                     	;# 
  1723  020D                     	;# 
  1724  020E                     	;# 
  1725  020F                     	;# 
  1726  020F                     	;# 
  1727  0210                     	;# 
  1728  0210                     	;# 
  1729  0211                     	;# 
  1730  0211                     	;# 
  1731  0212                     	;# 
  1732  0212                     	;# 
  1733  0213                     	;# 
  1734  0214                     	;# 
  1735  0215                     	;# 
  1736  0215                     	;# 
  1737  0216                     	;# 
  1738  0216                     	;# 
  1739  0217                     	;# 
  1740  0217                     	;# 
  1741  0218                     	;# 
  1742  0218                     	;# 
  1743  0219                     	;# 
  1744  021A                     	;# 
  1745  021B                     	;# 
  1746  021B                     	;# 
  1747  021C                     	;# 
  1748  021C                     	;# 
  1749  021D                     	;# 
  1750  021D                     	;# 
  1751  021E                     	;# 
  1752  021F                     	;# 
  1753  028C                     	;# 
  1754  028C                     	;# 
  1755  028D                     	;# 
  1756  028D                     	;# 
  1757  028E                     	;# 
  1758  028F                     	;# 
  1759  0290                     	;# 
  1760  0290                     	;# 
  1761  0291                     	;# 
  1762  0292                     	;# 
  1763  0292                     	;# 
  1764  0293                     	;# 
  1765  0293                     	;# 
  1766  0294                     	;# 
  1767  0295                     	;# 
  1768  0296                     	;# 
  1769  0296                     	;# 
  1770  0297                     	;# 
  1771  0298                     	;# 
  1772  0298                     	;# 
  1773  0299                     	;# 
  1774  0299                     	;# 
  1775  029A                     	;# 
  1776  029B                     	;# 
  1777  029C                     	;# 
  1778  029C                     	;# 
  1779  029D                     	;# 
  1780  030C                     	;# 
  1781  030C                     	;# 
  1782  030D                     	;# 
  1783  030E                     	;# 
  1784  030F                     	;# 
  1785  0310                     	;# 
  1786  0310                     	;# 
  1787  0311                     	;# 
  1788  0312                     	;# 
  1789  0313                     	;# 
  1790  0314                     	;# 
  1791  0314                     	;# 
  1792  0315                     	;# 
  1793  0316                     	;# 
  1794  0317                     	;# 
  1795  0318                     	;# 
  1796  0318                     	;# 
  1797  0319                     	;# 
  1798  031A                     	;# 
  1799  031B                     	;# 
  1800  031C                     	;# 
  1801  031C                     	;# 
  1802  031D                     	;# 
  1803  031E                     	;# 
  1804  031F                     	;# 
  1805  038C                     	;# 
  1806  038D                     	;# 
  1807  038E                     	;# 
  1808  0390                     	;# 
  1809  0391                     	;# 
  1810  0392                     	;# 
  1811  040C                     	;# 
  1812  040D                     	;# 
  1813  040E                     	;# 
  1814  040F                     	;# 
  1815  0410                     	;# 
  1816  0411                     	;# 
  1817  0416                     	;# 
  1818  0416                     	;# 
  1819  0417                     	;# 
  1820  0418                     	;# 
  1821  0418                     	;# 
  1822  0419                     	;# 
  1823  041A                     	;# 
  1824  041A                     	;# 
  1825  041B                     	;# 
  1826  041C                     	;# 
  1827  041C                     	;# 
  1828  041D                     	;# 
  1829  041E                     	;# 
  1830  041F                     	;# 
  1831  048C                     	;# 
  1832  048C                     	;# 
  1833  048D                     	;# 
  1834  048E                     	;# 
  1835  048F                     	;# 
  1836  048F                     	;# 
  1837  0490                     	;# 
  1838  0491                     	;# 
  1839  0492                     	;# 
  1840  0492                     	;# 
  1841  0493                     	;# 
  1842  0494                     	;# 
  1843  0495                     	;# 
  1844  0495                     	;# 
  1845  0496                     	;# 
  1846  0497                     	;# 
  1847  0498                     	;# 
  1848  0499                     	;# 
  1849  049A                     	;# 
  1850  049B                     	;# 
  1851  049C                     	;# 
  1852  049D                     	;# 
  1853  050C                     	;# 
  1854  050C                     	;# 
  1855  050D                     	;# 
  1856  050E                     	;# 
  1857  050F                     	;# 
  1858  050F                     	;# 
  1859  0510                     	;# 
  1860  0511                     	;# 
  1861  0512                     	;# 
  1862  0512                     	;# 
  1863  0513                     	;# 
  1864  0514                     	;# 
  1865  0515                     	;# 
  1866  0515                     	;# 
  1867  0516                     	;# 
  1868  0517                     	;# 
  1869  0518                     	;# 
  1870  0519                     	;# 
  1871  051A                     	;# 
  1872  051B                     	;# 
  1873  051C                     	;# 
  1874  051D                     	;# 
  1875  058C                     	;# 
  1876  058C                     	;# 
  1877  058D                     	;# 
  1878  058E                     	;# 
  1879  058F                     	;# 
  1880  058F                     	;# 
  1881  0590                     	;# 
  1882  0591                     	;# 
  1883  0592                     	;# 
  1884  0593                     	;# 
  1885  060C                     	;# 
  1886  060D                     	;# 
  1887  060E                     	;# 
  1888  060F                     	;# 
  1889  0610                     	;# 
  1890  0611                     	;# 
  1891  0612                     	;# 
  1892  0613                     	;# 
  1893  0614                     	;# 
  1894  0616                     	;# 
  1895  0617                     	;# 
  1896  0618                     	;# 
  1897  0619                     	;# 
  1898  061A                     	;# 
  1899  061B                     	;# 
  1900  061C                     	;# 
  1901  061D                     	;# 
  1902  061E                     	;# 
  1903  068C                     	;# 
  1904  068D                     	;# 
  1905  068E                     	;# 
  1906  068F                     	;# 
  1907  0690                     	;# 
  1908  0691                     	;# 
  1909  0692                     	;# 
  1910  0693                     	;# 
  1911  0694                     	;# 
  1912  070C                     	;# 
  1913  070D                     	;# 
  1914  070E                     	;# 
  1915  070F                     	;# 
  1916  0710                     	;# 
  1917  0711                     	;# 
  1918  0712                     	;# 
  1919  0713                     	;# 
  1920  0714                     	;# 
  1921  0716                     	;# 
  1922  0717                     	;# 
  1923  0718                     	;# 
  1924  0719                     	;# 
  1925  071A                     	;# 
  1926  071B                     	;# 
  1927  071C                     	;# 
  1928  071D                     	;# 
  1929  071E                     	;# 
  1930  0796                     	;# 
  1931  0797                     	;# 
  1932  0798                     	;# 
  1933  0799                     	;# 
  1934  079A                     	;# 
  1935  079B                     	;# 
  1936  080C                     	;# 
  1937  080D                     	;# 
  1938  080E                     	;# 
  1939  080F                     	;# 
  1940  0810                     	;# 
  1941  0811                     	;# 
  1942  0812                     	;# 
  1943  0813                     	;# 
  1944  0814                     	;# 
  1945  081A                     	;# 
  1946  081B                     	;# 
  1947  081C                     	;# 
  1948  081D                     	;# 
  1949  081E                     	;# 
  1950  081F                     	;# 
  1951  088C                     	;# 
  1952  088D                     	;# 
  1953  088E                     	;# 
  1954  088F                     	;# 
  1955  0890                     	;# 
  1956  0891                     	;# 
  1957  0892                     	;# 
  1958  0893                     	;# 
  1959  0895                     	;# 
  1960  0896                     	;# 
  1961  0897                     	;# 
  1962  0898                     	;# 
  1963  0899                     	;# 
  1964  089A                     	;# 
  1965  089B                     	;# 
  1966  090C                     	;# 
  1967  090E                     	;# 
  1968  090F                     	;# 
  1969  091F                     	;# 
  1970  091F                     	;# 
  1971  098F                     	;# 
  1972  098F                     	;# 
  1973  0990                     	;# 
  1974  0991                     	;# 
  1975  0992                     	;# 
  1976  0993                     	;# 
  1977  0994                     	;# 
  1978  0995                     	;# 
  1979  0996                     	;# 
  1980  0997                     	;# 
  1981  0E0F                     	;# 
  1982  0E10                     	;# 
  1983  0E11                     	;# 
  1984  0E12                     	;# 
  1985  0E13                     	;# 
  1986  0E14                     	;# 
  1987  0E15                     	;# 
  1988  0E16                     	;# 
  1989  0E17                     	;# 
  1990  0E18                     	;# 
  1991  0E19                     	;# 
  1992  0E1A                     	;# 
  1993  0E1B                     	;# 
  1994  0E1C                     	;# 
  1995  0E1D                     	;# 
  1996  0E1E                     	;# 
  1997  0E1F                     	;# 
  1998  0E20                     	;# 
  1999  0E21                     	;# 
  2000  0E22                     	;# 
  2001  0E23                     	;# 
  2002  0E24                     	;# 
  2003  0E25                     	;# 
  2004  0E26                     	;# 
  2005  0E27                     	;# 
  2006  0E28                     	;# 
  2007  0E29                     	;# 
  2008  0E2A                     	;# 
  2009  0E2B                     	;# 
  2010  0E2C                     	;# 
  2011  0E2D                     	;# 
  2012  0E2E                     	;# 
  2013  0E2F                     	;# 
  2014  0E30                     	;# 
  2015  0E31                     	;# 
  2016  0E32                     	;# 
  2017  0E33                     	;# 
  2018  0E34                     	;# 
  2019  0E35                     	;# 
  2020  0E36                     	;# 
  2021  0E37                     	;# 
  2022  0E8F                     	;# 
  2023  0E90                     	;# 
  2024  0E91                     	;# 
  2025  0E92                     	;# 
  2026  0E93                     	;# 
  2027  0E94                     	;# 
  2028  0E95                     	;# 
  2029  0E96                     	;# 
  2030  0E97                     	;# 
  2031  0E9C                     	;# 
  2032  0E9D                     	;# 
  2033  0E9E                     	;# 
  2034  0EA1                     	;# 
  2035  0EA2                     	;# 
  2036  0EA3                     	;# 
  2037  0EA4                     	;# 
  2038  0EA5                     	;# 
  2039  0EA9                     	;# 
  2040  0EAA                     	;# 
  2041  0EAB                     	;# 
  2042  0EAC                     	;# 
  2043  0EB1                     	;# 
  2044  0EB2                     	;# 
  2045  0EB3                     	;# 
  2046  0EB8                     	;# 
  2047  0EB9                     	;# 
  2048  0EBA                     	;# 
  2049  0EBB                     	;# 
  2050  0EBC                     	;# 
  2051  0EBD                     	;# 
  2052  0EBE                     	;# 
  2053  0EC3                     	;# 
  2054  0EC5                     	;# 
  2055  0EC6                     	;# 
  2056  0EC7                     	;# 
  2057  0EC8                     	;# 
  2058  0EC9                     	;# 
  2059  0ECA                     	;# 
  2060  0ECB                     	;# 
  2061  0ECC                     	;# 
  2062  0F10                     	;# 
  2063  0F11                     	;# 
  2064  0F12                     	;# 
  2065  0F13                     	;# 
  2066  0F14                     	;# 
  2067  0F15                     	;# 
  2068  0F16                     	;# 
  2069  0F17                     	;# 
  2070  0F18                     	;# 
  2071  0F19                     	;# 
  2072  0F1A                     	;# 
  2073  0F1B                     	;# 
  2074  0F1C                     	;# 
  2075  0F1D                     	;# 
  2076  0F1E                     	;# 
  2077  0F1F                     	;# 
  2078  0F20                     	;# 
  2079  0F21                     	;# 
  2080  0F22                     	;# 
  2081  0F23                     	;# 
  2082  0F24                     	;# 
  2083  0F25                     	;# 
  2084  0F26                     	;# 
  2085  0F27                     	;# 
  2086  0F38                     	;# 
  2087  0F39                     	;# 
  2088  0F3A                     	;# 
  2089  0F3B                     	;# 
  2090  0F3C                     	;# 
  2091  0F3D                     	;# 
  2092  0F3E                     	;# 
  2093  0F3F                     	;# 
  2094  0F40                     	;# 
  2095  0F41                     	;# 
  2096  0F43                     	;# 
  2097  0F44                     	;# 
  2098  0F45                     	;# 
  2099  0F46                     	;# 
  2100  0F47                     	;# 
  2101  0F48                     	;# 
  2102  0F49                     	;# 
  2103  0F4A                     	;# 
  2104  0F4B                     	;# 
  2105  0F4C                     	;# 
  2106  0F4E                     	;# 
  2107  0F4F                     	;# 
  2108  0F50                     	;# 
  2109  0F51                     	;# 
  2110  0F52                     	;# 
  2111  0F53                     	;# 
  2112  0F54                     	;# 
  2113  0F55                     	;# 
  2114  0F56                     	;# 
  2115  0F57                     	;# 
  2116  0F65                     	;# 
  2117  0F68                     	;# 
  2118  0F69                     	;# 
  2119  0F6A                     	;# 
  2120  0F6B                     	;# 
  2121  0FE4                     	;# 
  2122  0FE5                     	;# 
  2123  0FE6                     	;# 
  2124  0FE7                     	;# 
  2125  0FE8                     	;# 
  2126  0FE9                     	;# 
  2127  0FEA                     	;# 
  2128  0FEB                     	;# 
  2129  0FED                     	;# 
  2130  0FEE                     	;# 
  2131  0FEF                     	;# 
  2132  0000                     	;# 
  2133  0001                     	;# 
  2134  0002                     	;# 
  2135  0003                     	;# 
  2136  0004                     	;# 
  2137  0005                     	;# 
  2138  0006                     	;# 
  2139  0007                     	;# 
  2140  0008                     	;# 
  2141  0009                     	;# 
  2142  000A                     	;# 
  2143  000B                     	;# 
  2144  000C                     	;# 
  2145  000D                     	;# 
  2146  000E                     	;# 
  2147  0010                     	;# 
  2148  0011                     	;# 
  2149  0012                     	;# 
  2150  0013                     	;# 
  2151  0016                     	;# 
  2152  0017                     	;# 
  2153  0018                     	;# 
  2154  001C                     	;# 
  2155  001C                     	;# 
  2156  001D                     	;# 
  2157  001D                     	;# 
  2158  001E                     	;# 
  2159  001F                     	;# 
  2160  008C                     	;# 
  2161  008C                     	;# 
  2162  008D                     	;# 
  2163  008E                     	;# 
  2164  008E                     	;# 
  2165  008F                     	;# 
  2166  0090                     	;# 
  2167  0090                     	;# 
  2168  0091                     	;# 
  2169  0093                     	;# 
  2170  0094                     	;# 
  2171  0095                     	;# 
  2172  0096                     	;# 
  2173  0097                     	;# 
  2174  0098                     	;# 
  2175  0099                     	;# 
  2176  009A                     	;# 
  2177  009B                     	;# 
  2178  009C                     	;# 
  2179  009D                     	;# 
  2180  009E                     	;# 
  2181  010C                     	;# 
  2182  010D                     	;# 
  2183  010E                     	;# 
  2184  010E                     	;# 
  2185  010F                     	;# 
  2186  0110                     	;# 
  2187  0110                     	;# 
  2188  0111                     	;# 
  2189  0112                     	;# 
  2190  0112                     	;# 
  2191  0113                     	;# 
  2192  0114                     	;# 
  2193  0114                     	;# 
  2194  0115                     	;# 
  2195  0116                     	;# 
  2196  0116                     	;# 
  2197  0117                     	;# 
  2198  0119                     	;# 
  2199  0119                     	;# 
  2200  0119                     	;# 
  2201  011A                     	;# 
  2202  011A                     	;# 
  2203  011A                     	;# 
  2204  011B                     	;# 
  2205  011B                     	;# 
  2206  011B                     	;# 
  2207  011B                     	;# 
  2208  011B                     	;# 
  2209  011C                     	;# 
  2210  011C                     	;# 
  2211  011C                     	;# 
  2212  011D                     	;# 
  2213  011D                     	;# 
  2214  011D                     	;# 
  2215  011E                     	;# 
  2216  011E                     	;# 
  2217  011E                     	;# 
  2218  011F                     	;# 
  2219  011F                     	;# 
  2220  011F                     	;# 
  2221  011F                     	;# 
  2222  011F                     	;# 
  2223  018C                     	;# 
  2224  018D                     	;# 
  2225  018E                     	;# 
  2226  018F                     	;# 
  2227  0190                     	;# 
  2228  0191                     	;# 
  2229  0192                     	;# 
  2230  0196                     	;# 
  2231  0197                     	;# 
  2232  0198                     	;# 
  2233  0199                     	;# 
  2234  019A                     	;# 
  2235  019B                     	;# 
  2236  019C                     	;# 
  2237  020C                     	;# 
  2238  020C                     	;# 
  2239  020D                     	;# 
  2240  020E                     	;# 
  2241  020F                     	;# 
  2242  020F                     	;# 
  2243  0210                     	;# 
  2244  0210                     	;# 
  2245  0211                     	;# 
  2246  0211                     	;# 
  2247  0212                     	;# 
  2248  0212                     	;# 
  2249  0213                     	;# 
  2250  0214                     	;# 
  2251  0215                     	;# 
  2252  0215                     	;# 
  2253  0216                     	;# 
  2254  0216                     	;# 
  2255  0217                     	;# 
  2256  0217                     	;# 
  2257  0218                     	;# 
  2258  0218                     	;# 
  2259  0219                     	;# 
  2260  021A                     	;# 
  2261  021B                     	;# 
  2262  021B                     	;# 
  2263  021C                     	;# 
  2264  021C                     	;# 
  2265  021D                     	;# 
  2266  021D                     	;# 
  2267  021E                     	;# 
  2268  021F                     	;# 
  2269  028C                     	;# 
  2270  028C                     	;# 
  2271  028D                     	;# 
  2272  028D                     	;# 
  2273  028E                     	;# 
  2274  028F                     	;# 
  2275  0290                     	;# 
  2276  0290                     	;# 
  2277  0291                     	;# 
  2278  0292                     	;# 
  2279  0292                     	;# 
  2280  0293                     	;# 
  2281  0293                     	;# 
  2282  0294                     	;# 
  2283  0295                     	;# 
  2284  0296                     	;# 
  2285  0296                     	;# 
  2286  0297                     	;# 
  2287  0298                     	;# 
  2288  0298                     	;# 
  2289  0299                     	;# 
  2290  0299                     	;# 
  2291  029A                     	;# 
  2292  029B                     	;# 
  2293  029C                     	;# 
  2294  029C                     	;# 
  2295  029D                     	;# 
  2296  030C                     	;# 
  2297  030C                     	;# 
  2298  030D                     	;# 
  2299  030E                     	;# 
  2300  030F                     	;# 
  2301  0310                     	;# 
  2302  0310                     	;# 
  2303  0311                     	;# 
  2304  0312                     	;# 
  2305  0313                     	;# 
  2306  0314                     	;# 
  2307  0314                     	;# 
  2308  0315                     	;# 
  2309  0316                     	;# 
  2310  0317                     	;# 
  2311  0318                     	;# 
  2312  0318                     	;# 
  2313  0319                     	;# 
  2314  031A                     	;# 
  2315  031B                     	;# 
  2316  031C                     	;# 
  2317  031C                     	;# 
  2318  031D                     	;# 
  2319  031E                     	;# 
  2320  031F                     	;# 
  2321  038C                     	;# 
  2322  038D                     	;# 
  2323  038E                     	;# 
  2324  0390                     	;# 
  2325  0391                     	;# 
  2326  0392                     	;# 
  2327  040C                     	;# 
  2328  040D                     	;# 
  2329  040E                     	;# 
  2330  040F                     	;# 
  2331  0410                     	;# 
  2332  0411                     	;# 
  2333  0416                     	;# 
  2334  0416                     	;# 
  2335  0417                     	;# 
  2336  0418                     	;# 
  2337  0418                     	;# 
  2338  0419                     	;# 
  2339  041A                     	;# 
  2340  041A                     	;# 
  2341  041B                     	;# 
  2342  041C                     	;# 
  2343  041C                     	;# 
  2344  041D                     	;# 
  2345  041E                     	;# 
  2346  041F                     	;# 
  2347  048C                     	;# 
  2348  048C                     	;# 
  2349  048D                     	;# 
  2350  048E                     	;# 
  2351  048F                     	;# 
  2352  048F                     	;# 
  2353  0490                     	;# 
  2354  0491                     	;# 
  2355  0492                     	;# 
  2356  0492                     	;# 
  2357  0493                     	;# 
  2358  0494                     	;# 
  2359  0495                     	;# 
  2360  0495                     	;# 
  2361  0496                     	;# 
  2362  0497                     	;# 
  2363  0498                     	;# 
  2364  0499                     	;# 
  2365  049A                     	;# 
  2366  049B                     	;# 
  2367  049C                     	;# 
  2368  049D                     	;# 
  2369  050C                     	;# 
  2370  050C                     	;# 
  2371  050D                     	;# 
  2372  050E                     	;# 
  2373  050F                     	;# 
  2374  050F                     	;# 
  2375  0510                     	;# 
  2376  0511                     	;# 
  2377  0512                     	;# 
  2378  0512                     	;# 
  2379  0513                     	;# 
  2380  0514                     	;# 
  2381  0515                     	;# 
  2382  0515                     	;# 
  2383  0516                     	;# 
  2384  0517                     	;# 
  2385  0518                     	;# 
  2386  0519                     	;# 
  2387  051A                     	;# 
  2388  051B                     	;# 
  2389  051C                     	;# 
  2390  051D                     	;# 
  2391  058C                     	;# 
  2392  058C                     	;# 
  2393  058D                     	;# 
  2394  058E                     	;# 
  2395  058F                     	;# 
  2396  058F                     	;# 
  2397  0590                     	;# 
  2398  0591                     	;# 
  2399  0592                     	;# 
  2400  0593                     	;# 
  2401  060C                     	;# 
  2402  060D                     	;# 
  2403  060E                     	;# 
  2404  060F                     	;# 
  2405  0610                     	;# 
  2406  0611                     	;# 
  2407  0612                     	;# 
  2408  0613                     	;# 
  2409  0614                     	;# 
  2410  0616                     	;# 
  2411  0617                     	;# 
  2412  0618                     	;# 
  2413  0619                     	;# 
  2414  061A                     	;# 
  2415  061B                     	;# 
  2416  061C                     	;# 
  2417  061D                     	;# 
  2418  061E                     	;# 
  2419  068C                     	;# 
  2420  068D                     	;# 
  2421  068E                     	;# 
  2422  068F                     	;# 
  2423  0690                     	;# 
  2424  0691                     	;# 
  2425  0692                     	;# 
  2426  0693                     	;# 
  2427  0694                     	;# 
  2428  070C                     	;# 
  2429  070D                     	;# 
  2430  070E                     	;# 
  2431  070F                     	;# 
  2432  0710                     	;# 
  2433  0711                     	;# 
  2434  0712                     	;# 
  2435  0713                     	;# 
  2436  0714                     	;# 
  2437  0716                     	;# 
  2438  0717                     	;# 
  2439  0718                     	;# 
  2440  0719                     	;# 
  2441  071A                     	;# 
  2442  071B                     	;# 
  2443  071C                     	;# 
  2444  071D                     	;# 
  2445  071E                     	;# 
  2446  0796                     	;# 
  2447  0797                     	;# 
  2448  0798                     	;# 
  2449  0799                     	;# 
  2450  079A                     	;# 
  2451  079B                     	;# 
  2452  080C                     	;# 
  2453  080D                     	;# 
  2454  080E                     	;# 
  2455  080F                     	;# 
  2456  0810                     	;# 
  2457  0811                     	;# 
  2458  0812                     	;# 
  2459  0813                     	;# 
  2460  0814                     	;# 
  2461  081A                     	;# 
  2462  081B                     	;# 
  2463  081C                     	;# 
  2464  081D                     	;# 
  2465  081E                     	;# 
  2466  081F                     	;# 
  2467  088C                     	;# 
  2468  088D                     	;# 
  2469  088E                     	;# 
  2470  088F                     	;# 
  2471  0890                     	;# 
  2472  0891                     	;# 
  2473  0892                     	;# 
  2474  0893                     	;# 
  2475  0895                     	;# 
  2476  0896                     	;# 
  2477  0897                     	;# 
  2478  0898                     	;# 
  2479  0899                     	;# 
  2480  089A                     	;# 
  2481  089B                     	;# 
  2482  090C                     	;# 
  2483  090E                     	;# 
  2484  090F                     	;# 
  2485  091F                     	;# 
  2486  091F                     	;# 
  2487  098F                     	;# 
  2488  098F                     	;# 
  2489  0990                     	;# 
  2490  0991                     	;# 
  2491  0992                     	;# 
  2492  0993                     	;# 
  2493  0994                     	;# 
  2494  0995                     	;# 
  2495  0996                     	;# 
  2496  0997                     	;# 
  2497  0E0F                     	;# 
  2498  0E10                     	;# 
  2499  0E11                     	;# 
  2500  0E12                     	;# 
  2501  0E13                     	;# 
  2502  0E14                     	;# 
  2503  0E15                     	;# 
  2504  0E16                     	;# 
  2505  0E17                     	;# 
  2506  0E18                     	;# 
  2507  0E19                     	;# 
  2508  0E1A                     	;# 
  2509  0E1B                     	;# 
  2510  0E1C                     	;# 
  2511  0E1D                     	;# 
  2512  0E1E                     	;# 
  2513  0E1F                     	;# 
  2514  0E20                     	;# 
  2515  0E21                     	;# 
  2516  0E22                     	;# 
  2517  0E23                     	;# 
  2518  0E24                     	;# 
  2519  0E25                     	;# 
  2520  0E26                     	;# 
  2521  0E27                     	;# 
  2522  0E28                     	;# 
  2523  0E29                     	;# 
  2524  0E2A                     	;# 
  2525  0E2B                     	;# 
  2526  0E2C                     	;# 
  2527  0E2D                     	;# 
  2528  0E2E                     	;# 
  2529  0E2F                     	;# 
  2530  0E30                     	;# 
  2531  0E31                     	;# 
  2532  0E32                     	;# 
  2533  0E33                     	;# 
  2534  0E34                     	;# 
  2535  0E35                     	;# 
  2536  0E36                     	;# 
  2537  0E37                     	;# 
  2538  0E8F                     	;# 
  2539  0E90                     	;# 
  2540  0E91                     	;# 
  2541  0E92                     	;# 
  2542  0E93                     	;# 
  2543  0E94                     	;# 
  2544  0E95                     	;# 
  2545  0E96                     	;# 
  2546  0E97                     	;# 
  2547  0E9C                     	;# 
  2548  0E9D                     	;# 
  2549  0E9E                     	;# 
  2550  0EA1                     	;# 
  2551  0EA2                     	;# 
  2552  0EA3                     	;# 
  2553  0EA4                     	;# 
  2554  0EA5                     	;# 
  2555  0EA9                     	;# 
  2556  0EAA                     	;# 
  2557  0EAB                     	;# 
  2558  0EAC                     	;# 
  2559  0EB1                     	;# 
  2560  0EB2                     	;# 
  2561  0EB3                     	;# 
  2562  0EB8                     	;# 
  2563  0EB9                     	;# 
  2564  0EBA                     	;# 
  2565  0EBB                     	;# 
  2566  0EBC                     	;# 
  2567  0EBD                     	;# 
  2568  0EBE                     	;# 
  2569  0EC3                     	;# 
  2570  0EC5                     	;# 
  2571  0EC6                     	;# 
  2572  0EC7                     	;# 
  2573  0EC8                     	;# 
  2574  0EC9                     	;# 
  2575  0ECA                     	;# 
  2576  0ECB                     	;# 
  2577  0ECC                     	;# 
  2578  0F10                     	;# 
  2579  0F11                     	;# 
  2580  0F12                     	;# 
  2581  0F13                     	;# 
  2582  0F14                     	;# 
  2583  0F15                     	;# 
  2584  0F16                     	;# 
  2585  0F17                     	;# 
  2586  0F18                     	;# 
  2587  0F19                     	;# 
  2588  0F1A                     	;# 
  2589  0F1B                     	;# 
  2590  0F1C                     	;# 
  2591  0F1D                     	;# 
  2592  0F1E                     	;# 
  2593  0F1F                     	;# 
  2594  0F20                     	;# 
  2595  0F21                     	;# 
  2596  0F22                     	;# 
  2597  0F23                     	;# 
  2598  0F24                     	;# 
  2599  0F25                     	;# 
  2600  0F26                     	;# 
  2601  0F27                     	;# 
  2602  0F38                     	;# 
  2603  0F39                     	;# 
  2604  0F3A                     	;# 
  2605  0F3B                     	;# 
  2606  0F3C                     	;# 
  2607  0F3D                     	;# 
  2608  0F3E                     	;# 
  2609  0F3F                     	;# 
  2610  0F40                     	;# 
  2611  0F41                     	;# 
  2612  0F43                     	;# 
  2613  0F44                     	;# 
  2614  0F45                     	;# 
  2615  0F46                     	;# 
  2616  0F47                     	;# 
  2617  0F48                     	;# 
  2618  0F49                     	;# 
  2619  0F4A                     	;# 
  2620  0F4B                     	;# 
  2621  0F4C                     	;# 
  2622  0F4E                     	;# 
  2623  0F4F                     	;# 
  2624  0F50                     	;# 
  2625  0F51                     	;# 
  2626  0F52                     	;# 
  2627  0F53                     	;# 
  2628  0F54                     	;# 
  2629  0F55                     	;# 
  2630  0F56                     	;# 
  2631  0F57                     	;# 
  2632  0F65                     	;# 
  2633  0F68                     	;# 
  2634  0F69                     	;# 
  2635  0F6A                     	;# 
  2636  0F6B                     	;# 
  2637  0FE4                     	;# 
  2638  0FE5                     	;# 
  2639  0FE6                     	;# 
  2640  0FE7                     	;# 
  2641  0FE8                     	;# 
  2642  0FE9                     	;# 
  2643  0FEA                     	;# 
  2644  0FEB                     	;# 
  2645  0FED                     	;# 
  2646  0FEE                     	;# 
  2647  0FEF                     	;# 
  2648  0000                     	;# 
  2649  0001                     	;# 
  2650  0002                     	;# 
  2651  0003                     	;# 
  2652  0004                     	;# 
  2653  0005                     	;# 
  2654  0006                     	;# 
  2655  0007                     	;# 
  2656  0008                     	;# 
  2657  0009                     	;# 
  2658  000A                     	;# 
  2659  000B                     	;# 
  2660  000C                     	;# 
  2661  000D                     	;# 
  2662  000E                     	;# 
  2663  0010                     	;# 
  2664  0011                     	;# 
  2665  0012                     	;# 
  2666  0013                     	;# 
  2667  0016                     	;# 
  2668  0017                     	;# 
  2669  0018                     	;# 
  2670  001C                     	;# 
  2671  001C                     	;# 
  2672  001D                     	;# 
  2673  001D                     	;# 
  2674  001E                     	;# 
  2675  001F                     	;# 
  2676  008C                     	;# 
  2677  008C                     	;# 
  2678  008D                     	;# 
  2679  008E                     	;# 
  2680  008E                     	;# 
  2681  008F                     	;# 
  2682  0090                     	;# 
  2683  0090                     	;# 
  2684  0091                     	;# 
  2685  0093                     	;# 
  2686  0094                     	;# 
  2687  0095                     	;# 
  2688  0096                     	;# 
  2689  0097                     	;# 
  2690  0098                     	;# 
  2691  0099                     	;# 
  2692  009A                     	;# 
  2693  009B                     	;# 
  2694  009C                     	;# 
  2695  009D                     	;# 
  2696  009E                     	;# 
  2697  010C                     	;# 
  2698  010D                     	;# 
  2699  010E                     	;# 
  2700  010E                     	;# 
  2701  010F                     	;# 
  2702  0110                     	;# 
  2703  0110                     	;# 
  2704  0111                     	;# 
  2705  0112                     	;# 
  2706  0112                     	;# 
  2707  0113                     	;# 
  2708  0114                     	;# 
  2709  0114                     	;# 
  2710  0115                     	;# 
  2711  0116                     	;# 
  2712  0116                     	;# 
  2713  0117                     	;# 
  2714  0119                     	;# 
  2715  0119                     	;# 
  2716  0119                     	;# 
  2717  011A                     	;# 
  2718  011A                     	;# 
  2719  011A                     	;# 
  2720  011B                     	;# 
  2721  011B                     	;# 
  2722  011B                     	;# 
  2723  011B                     	;# 
  2724  011B                     	;# 
  2725  011C                     	;# 
  2726  011C                     	;# 
  2727  011C                     	;# 
  2728  011D                     	;# 
  2729  011D                     	;# 
  2730  011D                     	;# 
  2731  011E                     	;# 
  2732  011E                     	;# 
  2733  011E                     	;# 
  2734  011F                     	;# 
  2735  011F                     	;# 
  2736  011F                     	;# 
  2737  011F                     	;# 
  2738  011F                     	;# 
  2739  018C                     	;# 
  2740  018D                     	;# 
  2741  018E                     	;# 
  2742  018F                     	;# 
  2743  0190                     	;# 
  2744  0191                     	;# 
  2745  0192                     	;# 
  2746  0196                     	;# 
  2747  0197                     	;# 
  2748  0198                     	;# 
  2749  0199                     	;# 
  2750  019A                     	;# 
  2751  019B                     	;# 
  2752  019C                     	;# 
  2753  020C                     	;# 
  2754  020C                     	;# 
  2755  020D                     	;# 
  2756  020E                     	;# 
  2757  020F                     	;# 
  2758  020F                     	;# 
  2759  0210                     	;# 
  2760  0210                     	;# 
  2761  0211                     	;# 
  2762  0211                     	;# 
  2763  0212                     	;# 
  2764  0212                     	;# 
  2765  0213                     	;# 
  2766  0214                     	;# 
  2767  0215                     	;# 
  2768  0215                     	;# 
  2769  0216                     	;# 
  2770  0216                     	;# 
  2771  0217                     	;# 
  2772  0217                     	;# 
  2773  0218                     	;# 
  2774  0218                     	;# 
  2775  0219                     	;# 
  2776  021A                     	;# 
  2777  021B                     	;# 
  2778  021B                     	;# 
  2779  021C                     	;# 
  2780  021C                     	;# 
  2781  021D                     	;# 
  2782  021D                     	;# 
  2783  021E                     	;# 
  2784  021F                     	;# 
  2785  028C                     	;# 
  2786  028C                     	;# 
  2787  028D                     	;# 
  2788  028D                     	;# 
  2789  028E                     	;# 
  2790  028F                     	;# 
  2791  0290                     	;# 
  2792  0290                     	;# 
  2793  0291                     	;# 
  2794  0292                     	;# 
  2795  0292                     	;# 
  2796  0293                     	;# 
  2797  0293                     	;# 
  2798  0294                     	;# 
  2799  0295                     	;# 
  2800  0296                     	;# 
  2801  0296                     	;# 
  2802  0297                     	;# 
  2803  0298                     	;# 
  2804  0298                     	;# 
  2805  0299                     	;# 
  2806  0299                     	;# 
  2807  029A                     	;# 
  2808  029B                     	;# 
  2809  029C                     	;# 
  2810  029C                     	;# 
  2811  029D                     	;# 
  2812  030C                     	;# 
  2813  030C                     	;# 
  2814  030D                     	;# 
  2815  030E                     	;# 
  2816  030F                     	;# 
  2817  0310                     	;# 
  2818  0310                     	;# 
  2819  0311                     	;# 
  2820  0312                     	;# 
  2821  0313                     	;# 
  2822  0314                     	;# 
  2823  0314                     	;# 
  2824  0315                     	;# 
  2825  0316                     	;# 
  2826  0317                     	;# 
  2827  0318                     	;# 
  2828  0318                     	;# 
  2829  0319                     	;# 
  2830  031A                     	;# 
  2831  031B                     	;# 
  2832  031C                     	;# 
  2833  031C                     	;# 
  2834  031D                     	;# 
  2835  031E                     	;# 
  2836  031F                     	;# 
  2837  038C                     	;# 
  2838  038D                     	;# 
  2839  038E                     	;# 
  2840  0390                     	;# 
  2841  0391                     	;# 
  2842  0392                     	;# 
  2843  040C                     	;# 
  2844  040D                     	;# 
  2845  040E                     	;# 
  2846  040F                     	;# 
  2847  0410                     	;# 
  2848  0411                     	;# 
  2849  0416                     	;# 
  2850  0416                     	;# 
  2851  0417                     	;# 
  2852  0418                     	;# 
  2853  0418                     	;# 
  2854  0419                     	;# 
  2855  041A                     	;# 
  2856  041A                     	;# 
  2857  041B                     	;# 
  2858  041C                     	;# 
  2859  041C                     	;# 
  2860  041D                     	;# 
  2861  041E                     	;# 
  2862  041F                     	;# 
  2863  048C                     	;# 
  2864  048C                     	;# 
  2865  048D                     	;# 
  2866  048E                     	;# 
  2867  048F                     	;# 
  2868  048F                     	;# 
  2869  0490                     	;# 
  2870  0491                     	;# 
  2871  0492                     	;# 
  2872  0492                     	;# 
  2873  0493                     	;# 
  2874  0494                     	;# 
  2875  0495                     	;# 
  2876  0495                     	;# 
  2877  0496                     	;# 
  2878  0497                     	;# 
  2879  0498                     	;# 
  2880  0499                     	;# 
  2881  049A                     	;# 
  2882  049B                     	;# 
  2883  049C                     	;# 
  2884  049D                     	;# 
  2885  050C                     	;# 
  2886  050C                     	;# 
  2887  050D                     	;# 
  2888  050E                     	;# 
  2889  050F                     	;# 
  2890  050F                     	;# 
  2891  0510                     	;# 
  2892  0511                     	;# 
  2893  0512                     	;# 
  2894  0512                     	;# 
  2895  0513                     	;# 
  2896  0514                     	;# 
  2897  0515                     	;# 
  2898  0515                     	;# 
  2899  0516                     	;# 
  2900  0517                     	;# 
  2901  0518                     	;# 
  2902  0519                     	;# 
  2903  051A                     	;# 
  2904  051B                     	;# 
  2905  051C                     	;# 
  2906  051D                     	;# 
  2907  058C                     	;# 
  2908  058C                     	;# 
  2909  058D                     	;# 
  2910  058E                     	;# 
  2911  058F                     	;# 
  2912  058F                     	;# 
  2913  0590                     	;# 
  2914  0591                     	;# 
  2915  0592                     	;# 
  2916  0593                     	;# 
  2917  060C                     	;# 
  2918  060D                     	;# 
  2919  060E                     	;# 
  2920  060F                     	;# 
  2921  0610                     	;# 
  2922  0611                     	;# 
  2923  0612                     	;# 
  2924  0613                     	;# 
  2925  0614                     	;# 
  2926  0616                     	;# 
  2927  0617                     	;# 
  2928  0618                     	;# 
  2929  0619                     	;# 
  2930  061A                     	;# 
  2931  061B                     	;# 
  2932  061C                     	;# 
  2933  061D                     	;# 
  2934  061E                     	;# 
  2935  068C                     	;# 
  2936  068D                     	;# 
  2937  068E                     	;# 
  2938  068F                     	;# 
  2939  0690                     	;# 
  2940  0691                     	;# 
  2941  0692                     	;# 
  2942  0693                     	;# 
  2943  0694                     	;# 
  2944  070C                     	;# 
  2945  070D                     	;# 
  2946  070E                     	;# 
  2947  070F                     	;# 
  2948  0710                     	;# 
  2949  0711                     	;# 
  2950  0712                     	;# 
  2951  0713                     	;# 
  2952  0714                     	;# 
  2953  0716                     	;# 
  2954  0717                     	;# 
  2955  0718                     	;# 
  2956  0719                     	;# 
  2957  071A                     	;# 
  2958  071B                     	;# 
  2959  071C                     	;# 
  2960  071D                     	;# 
  2961  071E                     	;# 
  2962  0796                     	;# 
  2963  0797                     	;# 
  2964  0798                     	;# 
  2965  0799                     	;# 
  2966  079A                     	;# 
  2967  079B                     	;# 
  2968  080C                     	;# 
  2969  080D                     	;# 
  2970  080E                     	;# 
  2971  080F                     	;# 
  2972  0810                     	;# 
  2973  0811                     	;# 
  2974  0812                     	;# 
  2975  0813                     	;# 
  2976  0814                     	;# 
  2977  081A                     	;# 
  2978  081B                     	;# 
  2979  081C                     	;# 
  2980  081D                     	;# 
  2981  081E                     	;# 
  2982  081F                     	;# 
  2983  088C                     	;# 
  2984  088D                     	;# 
  2985  088E                     	;# 
  2986  088F                     	;# 
  2987  0890                     	;# 
  2988  0891                     	;# 
  2989  0892                     	;# 
  2990  0893                     	;# 
  2991  0895                     	;# 
  2992  0896                     	;# 
  2993  0897                     	;# 
  2994  0898                     	;# 
  2995  0899                     	;# 
  2996  089A                     	;# 
  2997  089B                     	;# 
  2998  090C                     	;# 
  2999  090E                     	;# 
  3000  090F                     	;# 
  3001  091F                     	;# 
  3002  091F                     	;# 
  3003  098F                     	;# 
  3004  098F                     	;# 
  3005  0990                     	;# 
  3006  0991                     	;# 
  3007  0992                     	;# 
  3008  0993                     	;# 
  3009  0994                     	;# 
  3010  0995                     	;# 
  3011  0996                     	;# 
  3012  0997                     	;# 
  3013  0E0F                     	;# 
  3014  0E10                     	;# 
  3015  0E11                     	;# 
  3016  0E12                     	;# 
  3017  0E13                     	;# 
  3018  0E14                     	;# 
  3019  0E15                     	;# 
  3020  0E16                     	;# 
  3021  0E17                     	;# 
  3022  0E18                     	;# 
  3023  0E19                     	;# 
  3024  0E1A                     	;# 
  3025  0E1B                     	;# 
  3026  0E1C                     	;# 
  3027  0E1D                     	;# 
  3028  0E1E                     	;# 
  3029  0E1F                     	;# 
  3030  0E20                     	;# 
  3031  0E21                     	;# 
  3032  0E22                     	;# 
  3033  0E23                     	;# 
  3034  0E24                     	;# 
  3035  0E25                     	;# 
  3036  0E26                     	;# 
  3037  0E27                     	;# 
  3038  0E28                     	;# 
  3039  0E29                     	;# 
  3040  0E2A                     	;# 
  3041  0E2B                     	;# 
  3042  0E2C                     	;# 
  3043  0E2D                     	;# 
  3044  0E2E                     	;# 
  3045  0E2F                     	;# 
  3046  0E30                     	;# 
  3047  0E31                     	;# 
  3048  0E32                     	;# 
  3049  0E33                     	;# 
  3050  0E34                     	;# 
  3051  0E35                     	;# 
  3052  0E36                     	;# 
  3053  0E37                     	;# 
  3054  0E8F                     	;# 
  3055  0E90                     	;# 
  3056  0E91                     	;# 
  3057  0E92                     	;# 
  3058  0E93                     	;# 
  3059  0E94                     	;# 
  3060  0E95                     	;# 
  3061  0E96                     	;# 
  3062  0E97                     	;# 
  3063  0E9C                     	;# 
  3064  0E9D                     	;# 
  3065  0E9E                     	;# 
  3066  0EA1                     	;# 
  3067  0EA2                     	;# 
  3068  0EA3                     	;# 
  3069  0EA4                     	;# 
  3070  0EA5                     	;# 
  3071  0EA9                     	;# 
  3072  0EAA                     	;# 
  3073  0EAB                     	;# 
  3074  0EAC                     	;# 
  3075  0EB1                     	;# 
  3076  0EB2                     	;# 
  3077  0EB3                     	;# 
  3078  0EB8                     	;# 
  3079  0EB9                     	;# 
  3080  0EBA                     	;# 
  3081  0EBB                     	;# 
  3082  0EBC                     	;# 
  3083  0EBD                     	;# 
  3084  0EBE                     	;# 
  3085  0EC3                     	;# 
  3086  0EC5                     	;# 
  3087  0EC6                     	;# 
  3088  0EC7                     	;# 
  3089  0EC8                     	;# 
  3090  0EC9                     	;# 
  3091  0ECA                     	;# 
  3092  0ECB                     	;# 
  3093  0ECC                     	;# 
  3094  0F10                     	;# 
  3095  0F11                     	;# 
  3096  0F12                     	;# 
  3097  0F13                     	;# 
  3098  0F14                     	;# 
  3099  0F15                     	;# 
  3100  0F16                     	;# 
  3101  0F17                     	;# 
  3102  0F18                     	;# 
  3103  0F19                     	;# 
  3104  0F1A                     	;# 
  3105  0F1B                     	;# 
  3106  0F1C                     	;# 
  3107  0F1D                     	;# 
  3108  0F1E                     	;# 
  3109  0F1F                     	;# 
  3110  0F20                     	;# 
  3111  0F21                     	;# 
  3112  0F22                     	;# 
  3113  0F23                     	;# 
  3114  0F24                     	;# 
  3115  0F25                     	;# 
  3116  0F26                     	;# 
  3117  0F27                     	;# 
  3118  0F38                     	;# 
  3119  0F39                     	;# 
  3120  0F3A                     	;# 
  3121  0F3B                     	;# 
  3122  0F3C                     	;# 
  3123  0F3D                     	;# 
  3124  0F3E                     	;# 
  3125  0F3F                     	;# 
  3126  0F40                     	;# 
  3127  0F41                     	;# 
  3128  0F43                     	;# 
  3129  0F44                     	;# 
  3130  0F45                     	;# 
  3131  0F46                     	;# 
  3132  0F47                     	;# 
  3133  0F48                     	;# 
  3134  0F49                     	;# 
  3135  0F4A                     	;# 
  3136  0F4B                     	;# 
  3137  0F4C                     	;# 
  3138  0F4E                     	;# 
  3139  0F4F                     	;# 
  3140  0F50                     	;# 
  3141  0F51                     	;# 
  3142  0F52                     	;# 
  3143  0F53                     	;# 
  3144  0F54                     	;# 
  3145  0F55                     	;# 
  3146  0F56                     	;# 
  3147  0F57                     	;# 
  3148  0F65                     	;# 
  3149  0F68                     	;# 
  3150  0F69                     	;# 
  3151  0F6A                     	;# 
  3152  0F6B                     	;# 
  3153  0FE4                     	;# 
  3154  0FE5                     	;# 
  3155  0FE6                     	;# 
  3156  0FE7                     	;# 
  3157  0FE8                     	;# 
  3158  0FE9                     	;# 
  3159  0FEA                     	;# 
  3160  0FEB                     	;# 
  3161  0FED                     	;# 
  3162  0FEE                     	;# 
  3163  0FEF                     	;# 
  3164                           
  3165                           	psect	nvBANK0
  3166  0039                     __pnvBANK0:	
  3167  0039                     _TMR0_InterruptHandler:	
  3168  0039                     	ds	2
  3169  000B                     _INTCONbits	set	11
  3170  0016                     _LATA	set	22
  3171  0017                     _LATB	set	23
  3172  0017                     _LATBbits	set	23
  3173  0018                     _LATC	set	24
  3174  0018                     _LATCbits	set	24
  3175  000C                     _PORTAbits	set	12
  3176  000E                     _PORTCbits	set	14
  3177  001E                     _T0CON0	set	30
  3178  001E                     _T0CON0bits	set	30
  3179  001F                     _T0CON1	set	31
  3180  001D                     _TMR0H	set	29
  3181  001C                     _TMR0L	set	28
  3182  0011                     _TRISA	set	17
  3183  0011                     _TRISAbits	set	17
  3184  0012                     _TRISB	set	18
  3185  0013                     _TRISC	set	19
  3186  0013                     _TRISCbits	set	19
  3187  005F                     _GIE	set	95
  3188  058D                     _NCO1ACCH	set	1421
  3189  058E                     _NCO1ACCU	set	1422
  3190  0593                     _NCO1CLK	set	1427
  3191  0592                     _NCO1CON	set	1426
  3192  0592                     _NCO1CONbits	set	1426
  3193  0590                     _NCO1INCH	set	1424
  3194  058F                     _NCO1INCL	set	1423
  3195  0591                     _NCO1INCU	set	1425
  3196  0716                     _PIE0bits	set	1814
  3197  070C                     _PIR0bits	set	1804
  3198  088D                     _OSCCON1	set	2189
  3199  088F                     _OSCCON3	set	2191
  3200  0891                     _OSCEN	set	2193
  3201  0893                     _OSCFRQ	set	2195
  3202  0892                     _OSCTUNE	set	2194
  3203  0E8F                     _PPSLOCK	set	3727
  3204  0E8F                     _PPSLOCKbits	set	3727
  3205  0F38                     _ANSELA	set	3896
  3206  0F43                     _ANSELB	set	3907
  3207  0F4E                     _ANSELC	set	3918
  3208  0F3A                     _ODCONA	set	3898
  3209  0F45                     _ODCONB	set	3909
  3210  0F50                     _ODCONC	set	3920
  3211  0F20                     _RC0PPS	set	3872
  3212  0F39                     _WPUA	set	3897
  3213  0F44                     _WPUB	set	3908
  3214  0F4F                     _WPUC	set	3919
  3215  0F65                     _WPUE	set	3941
  3216                           
  3217                           ; #config settings
  3218  0000                     
  3219                           	psect	cinit
  3220  0016                     start_initialization:	
  3221  0016                     __initialization:	
  3222                           
  3223                           ; Clear objects allocated to COMMON
  3224  0016  01FC               	clrf	__pbssCOMMON& (0+127)
  3225                           
  3226                           ; Clear objects allocated to BANK0
  3227  0017  3020               	movlw	low __pbssBANK0
  3228  0018  0084               	movwf	4
  3229  0019  3000               	movlw	high __pbssBANK0
  3230  001A  0085               	movwf	5
  3231  001B  3010               	movlw	16
  3232  001C  3183  237D  3180   	fcall	clear_ram0
  3233                           
  3234                           ; Clear objects allocated to BANK1
  3235  001F  30A0               	movlw	low __pbssBANK1
  3236  0020  0084               	movwf	4
  3237  0021  3000               	movlw	high __pbssBANK1
  3238  0022  0085               	movwf	5
  3239  0023  303C               	movlw	60
  3240  0024  3183  237D         	fcall	clear_ram0
  3241  0026                     end_of_initialization:	
  3242                           ;End of C runtime variable initialization code
  3243                           
  3244  0026                     __end_of__initialization:	
  3245  0026  107E               	bcf	int$flags,0	;clear compiler interrupt flag (level 1)
  3246  0027  0020               	movlb	0
  3247  0028  3180  282A         	ljmp	_main	;jump to C main() function
  3248                           
  3249                           	psect	bssCOMMON
  3250  007C                     __pbssCOMMON:	
  3251  007C                     _weekDay:	
  3252  007C                     	ds	1
  3253                           
  3254                           	psect	bssBANK0
  3255  0020                     __pbssBANK0:	
  3256  0020                     _millis:	
  3257  0020                     	ds	2
  3258  0022                     _seconds:	
  3259  0022                     	ds	2
  3260  0024                     _LED_blue_flg:	
  3261  0024                     	ds	1
  3262  0025                     _buzzer_flg:	
  3263  0025                     	ds	1
  3264  0026                     _hour:	
  3265  0026                     	ds	1
  3266  0027                     _minute:	
  3267  0027                     	ds	1
  3268  0028                     _month:	
  3269  0028                     	ds	1
  3270  0029                     _monthDay:	
  3271  0029                     	ds	1
  3272  002A                     _r_flg:	
  3273  002A                     	ds	1
  3274  002B                     _relay_on_flg:	
  3275  002B                     	ds	1
  3276  002C                     _rtc_config:	
  3277  002C                     	ds	1
  3278  002D                     _s_flg:	
  3279  002D                     	ds	1
  3280  002E                     _second:	
  3281  002E                     	ds	1
  3282  002F                     _year:	
  3283  002F                     	ds	1
  3284                           
  3285                           	psect	bssBANK1
  3286  00A0                     __pbssBANK1:	
  3287  00A0                     _pData:	
  3288  00A0                     	ds	60
  3289                           
  3290                           	psect	clrtext
  3291  037D                     clear_ram0:	
  3292                           ;	Called with FSR0 containing the base address, and
  3293                           ;	WREG with the size to clear
  3294                           
  3295  037D  0064               	clrwdt	;clear the watchdog before getting into this loop
  3296  037E                     clrloop0:	
  3297  037E  0180               	clrf	0	;clear RAM location pointed to by FSR
  3298  037F  3101               	addfsr 0,1
  3299  0380  0B89               	decfsz	9,f	;Have we reached the end of clearing yet?
  3300  0381  2B7E               	goto	clrloop0	;have we reached the end yet?
  3301  0382  3400               	retlw	0	;all done for this memory range, return
  3302                           
  3303                           	psect	cstackCOMMON
  3304  0070                     __pcstackCOMMON:	
  3305  0070                     ?_PIN_MANAGER_Initialize:	
  3306  0070                     ?_OSCILLATOR_Initialize:	
  3307                           ; 1 bytes @ 0x0
  3308                           
  3309  0070                     ?_TMR0_Initialize:	
  3310                           ; 1 bytes @ 0x0
  3311                           
  3312  0070                     ?_i2c_start:	
  3313                           ; 1 bytes @ 0x0
  3314                           
  3315  0070                     ?_i2c_stop:	
  3316                           ; 1 bytes @ 0x0
  3317                           
  3318  0070                     ?_get_time_date:	
  3319                           ; 1 bytes @ 0x0
  3320                           
  3321  0070                     ?_bcdToDec:	
  3322                           ; 1 bytes @ 0x0
  3323                           
  3324  0070                     ?_i2c_write:	
  3325                           ; 1 bytes @ 0x0
  3326                           
  3327  0070                     ?_delay_10us:	
  3328                           ; 1 bytes @ 0x0
  3329                           
  3330  0070                     ?_TMR0_DefaultInterruptHandler:	
  3331                           ; 1 bytes @ 0x0
  3332                           
  3333  0070                     ??_TMR0_DefaultInterruptHandler:	
  3334                           ; 1 bytes @ 0x0
  3335                           
  3336  0070                     ?_TMR0_StartTimer:	
  3337                           ; 1 bytes @ 0x0
  3338                           
  3339  0070                     ?_NCO1_Initialize:	
  3340                           ; 1 bytes @ 0x0
  3341                           
  3342  0070                     ?_SYSTEM_Initialize:	
  3343                           ; 1 bytes @ 0x0
  3344                           
  3345  0070                     ?_main:	
  3346                           ; 1 bytes @ 0x0
  3347                           
  3348  0070                     ?_TMR0_ISR:	
  3349                           ; 1 bytes @ 0x0
  3350                           
  3351  0070                     ??_TMR0_ISR:	
  3352                           ; 1 bytes @ 0x0
  3353                           
  3354  0070                     ?_INTERRUPT_InterruptManager:	
  3355                           ; 1 bytes @ 0x0
  3356                           
  3357  0070                     ??_INTERRUPT_InterruptManager:	
  3358                           ; 1 bytes @ 0x0
  3359                           
  3360                           
  3361                           ; 1 bytes @ 0x0
  3362  0070                     	ds	1
  3363  0071                     ??_PIN_MANAGER_Initialize:	
  3364  0071                     ??_OSCILLATOR_Initialize:	
  3365                           ; 1 bytes @ 0x1
  3366                           
  3367  0071                     ??_i2c_start:	
  3368                           ; 1 bytes @ 0x1
  3369                           
  3370  0071                     ??_i2c_stop:	
  3371                           ; 1 bytes @ 0x1
  3372                           
  3373  0071                     ??_i2c_write:	
  3374                           ; 1 bytes @ 0x1
  3375                           
  3376  0071                     ??_delay_10us:	
  3377                           ; 1 bytes @ 0x1
  3378                           
  3379  0071                     ?_TMR0_SetInterruptHandler:	
  3380                           ; 1 bytes @ 0x1
  3381                           
  3382  0071                     ??_TMR0_StartTimer:	
  3383                           ; 1 bytes @ 0x1
  3384                           
  3385  0071                     ??_NCO1_Initialize:	
  3386                           ; 1 bytes @ 0x1
  3387                           
  3388  0071                     ?___awdiv:	
  3389                           ; 1 bytes @ 0x1
  3390                           
  3391  0071                     PIN_MANAGER_Initialize@state:	
  3392                           ; 2 bytes @ 0x1
  3393                           
  3394  0071                     TMR0_SetInterruptHandler@InterruptHandler:	
  3395                           ; 1 bytes @ 0x1
  3396                           
  3397  0071                     ___awdiv@divisor:	
  3398                           ; 2 bytes @ 0x1
  3399                           
  3400                           
  3401                           ; 2 bytes @ 0x1
  3402  0071                     	ds	1
  3403  0072                     i2c_write@output_data:	
  3404                           
  3405                           ; 1 bytes @ 0x2
  3406  0072                     	ds	1
  3407  0073                     ??_TMR0_Initialize:	
  3408  0073                     ??_TMR0_SetInterruptHandler:	
  3409                           ; 1 bytes @ 0x3
  3410                           
  3411  0073                     ??_SYSTEM_Initialize:	
  3412                           ; 1 bytes @ 0x3
  3413                           
  3414  0073                     i2c_write@i:	
  3415                           ; 1 bytes @ 0x3
  3416                           
  3417  0073                     ___awdiv@dividend:	
  3418                           ; 1 bytes @ 0x3
  3419                           
  3420                           
  3421                           ; 2 bytes @ 0x3
  3422  0073                     	ds	1
  3423  0074                     ?_read_ds1307:	
  3424  0074                     read_ds1307@ptr:	
  3425                           ; 1 bytes @ 0x4
  3426                           
  3427                           
  3428                           ; 1 bytes @ 0x4
  3429  0074                     	ds	1
  3430  0075                     ??___awdiv:	
  3431  0075                     read_ds1307@len:	
  3432                           ; 1 bytes @ 0x5
  3433                           
  3434                           
  3435                           ; 1 bytes @ 0x5
  3436  0075                     	ds	1
  3437  0076                     ??_read_ds1307:	
  3438  0076                     ___awdiv@counter:	
  3439                           ; 1 bytes @ 0x6
  3440                           
  3441                           
  3442                           ; 1 bytes @ 0x6
  3443  0076                     	ds	1
  3444  0077                     ___awdiv@sign:	
  3445                           
  3446                           ; 1 bytes @ 0x7
  3447  0077                     	ds	1
  3448  0078                     ___awdiv@quotient:	
  3449                           
  3450                           ; 2 bytes @ 0x8
  3451  0078                     	ds	2
  3452  007A                     ?___bmul:	
  3453  007A                     ___bmul@multiplicand:	
  3454                           ; 1 bytes @ 0xA
  3455                           
  3456                           
  3457                           ; 1 bytes @ 0xA
  3458  007A                     	ds	1
  3459  007B                     ??___bmul:	
  3460                           
  3461                           ; 1 bytes @ 0xB
  3462  007B                     	ds	1
  3463  007C                     ??_main:	
  3464                           
  3465                           	psect	cstackBANK0
  3466  0030                     __pcstackBANK0:	
  3467                           ; 1 bytes @ 0xC
  3468                           
  3469  0030                     read_ds1307@wdr_addrs:	
  3470  0030                     ___bmul@product:	
  3471                           ; 1 bytes @ 0x0
  3472                           
  3473                           
  3474                           ; 1 bytes @ 0x0
  3475  0030                     	ds	1
  3476  0031                     read_ds1307@i:	
  3477  0031                     ___bmul@multiplier:	
  3478                           ; 1 bytes @ 0x1
  3479                           
  3480                           
  3481                           ; 1 bytes @ 0x1
  3482  0031                     	ds	1
  3483  0032                     ??_bcdToDec:	
  3484  0032                     read_ds1307@dev_addrs:	
  3485                           ; 1 bytes @ 0x2
  3486                           
  3487                           
  3488                           ; 1 bytes @ 0x2
  3489  0032                     	ds	1
  3490  0033                     read_ds1307@input_data:	
  3491                           
  3492                           ; 1 bytes @ 0x3
  3493  0033                     	ds	1
  3494  0034                     read_ds1307@j:	
  3495                           
  3496                           ; 1 bytes @ 0x4
  3497  0034                     	ds	2
  3498  0036                     bcdToDec@val:	
  3499                           
  3500                           ; 1 bytes @ 0x6
  3501  0036                     	ds	1
  3502  0037                     ??_get_time_date:	
  3503                           
  3504                           ; 1 bytes @ 0x7
  3505  0037                     	ds	2
  3506                           
  3507                           	psect	maintext
  3508  002A                     __pmaintext:	
  3509 ;;
  3510 ;;Main: autosize = 0, tempsize = 0, incstack = 0, save=0
  3511 ;;
  3512 ;; *************** function _main *****************
  3513 ;; Defined at:
  3514 ;;		line 109 in file "main.c"
  3515 ;; Parameters:    Size  Location     Type
  3516 ;;		None
  3517 ;; Auto vars:     Size  Location     Type
  3518 ;;  i               1    0        unsigned char 
  3519 ;; Return value:  Size  Location     Type
  3520 ;;                  1    wreg      void 
  3521 ;; Registers used:
  3522 ;;		wreg, fsr1l, fsr1h, status,2, status,0, pclath, cstack
  3523 ;; Tracked objects:
  3524 ;;		On entry : B1F/0
  3525 ;;		On exit  : 0/0
  3526 ;;		Unchanged: 0/0
  3527 ;; Data sizes:     COMMON   BANK0   BANK1   BANK2   BANK3   BANK4   BANK5   BANK6   BANK7   BANK8   BANK9  BANK10  BANK1
      +1  BANK12
  3528 ;;      Params:         0       0       0       0       0       0       0       0       0       0       0       0       
      +0       0
  3529 ;;      Locals:         0       0       0       0       0       0       0       0       0       0       0       0       
      +0       0
  3530 ;;      Temps:          0       0       0       0       0       0       0       0       0       0       0       0       
      +0       0
  3531 ;;      Totals:         0       0       0       0       0       0       0       0       0       0       0       0       
      +0       0
  3532 ;;Total ram usage:        0 bytes
  3533 ;; Hardware stack levels required when called:    7
  3534 ;; This function calls:
  3535 ;;		_SYSTEM_Initialize
  3536 ;;		_get_time_date
  3537 ;;		_i2c_start
  3538 ;;		_i2c_stop
  3539 ;; This function is called by:
  3540 ;;		Startup code after reset
  3541 ;; This function uses a non-reentrant model
  3542 ;;
  3543                           
  3544                           
  3545                           ;psect for function _main
  3546  002A                     _main:	
  3547                           
  3548                           ;main.c: 111: byte i;
  3549                           ;main.c: 113: SYSTEM_Initialize();
  3550                           
  3551                           ;incstack = 0
  3552                           ; Regs used in _main: [wreg+fsr1l+fsr1h+status,2+status,0+pclath+cstack]
  3553  002A  3183  2368  3180   	fcall	_SYSTEM_Initialize
  3554                           
  3555                           ;main.c: 114: NCO1CONbits.N1EN = 0;
  3556  002D  002B               	movlb	11	; select bank11
  3557  002E  1392               	bcf	18,7	;volatile
  3558                           
  3559                           ;main.c: 115: LATBbits.LATB5 = 0;
  3560  002F  0020               	movlb	0	; select bank0
  3561  0030  1297               	bcf	23,5	;volatile
  3562                           
  3563                           ;main.c: 116: millis = seconds = 0;
  3564  0031  01A2               	clrf	_seconds
  3565  0032  01A3               	clrf	_seconds+1
  3566  0033  01A0               	clrf	_millis
  3567  0034  01A1               	clrf	_millis+1
  3568                           
  3569                           ;main.c: 117: buzzer_flg = LED_blue_flg = 0;
  3570  0035  01A4               	clrf	_LED_blue_flg
  3571  0036  01A5               	clrf	_buzzer_flg
  3572                           
  3573                           ;main.c: 123: (INTCONbits.GIE = 1);
  3574  0037  178B               	bsf	11,7	;volatile
  3575                           
  3576                           ;main.c: 126: (INTCONbits.PEIE = 1);
  3577  0038  170B               	bsf	11,6	;volatile
  3578                           
  3579                           ;main.c: 136: do { LATCbits.LATC4 = 0; } while(0);
  3580  0039  1218               	bcf	24,4	;volatile
  3581                           
  3582                           ;main.c: 137: do { TRISCbits.TRISC4 = 1; } while(0);
  3583  003A  1613               	bsf	19,4	;volatile
  3584                           
  3585                           ;main.c: 140: do { TRISCbits.TRISC3 = 0; } while(0);
  3586  003B  1193               	bcf	19,3	;volatile
  3587                           
  3588                           ;main.c: 141: do { LATCbits.LATC3 = 1; } while(0);
  3589  003C  1598               	bsf	24,3	;volatile
  3590                           
  3591                           ;main.c: 142: do { TRISAbits.TRISA0 = 1; } while(0);
  3592  003D  1411               	bsf	17,0	;volatile
  3593                           
  3594                           ;main.c: 145: i2c_start();
  3595  003E  3183  2328  3180   	fcall	_i2c_start
  3596                           
  3597                           ;main.c: 146: i2c_stop();
  3598  0041  3182  22FE  3180   	fcall	_i2c_stop
  3599  0044                     l2126:	
  3600                           ;main.c: 150: while (1)
  3601                           
  3602                           
  3603                           ;main.c: 151: {
  3604                           ;main.c: 153: if(PORTAbits.RA0 && !s_flg)
  3605  0044  0020               	movlb	0	; select bank0
  3606  0045  1C0C               	btfss	12,0	;volatile
  3607  0046  284C               	goto	l176
  3608  0047  082D               	movf	_s_flg,w
  3609  0048  1D03               	btfss	3,2
  3610  0049  284C               	goto	l176
  3611                           
  3612                           ;main.c: 154: r_flg = 1;
  3613  004A  01AA               	clrf	_r_flg
  3614  004B  0AAA               	incf	_r_flg,f
  3615  004C                     l176:	
  3616                           
  3617                           ;main.c: 155: if(!PORTAbits.RA0 && !r_flg)
  3618  004C  180C               	btfsc	12,0	;volatile
  3619  004D  2852               	goto	l2136
  3620  004E  082A               	movf	_r_flg,w
  3621  004F  1D03               	btfss	3,2
  3622  0050  2852               	goto	l2136
  3623                           
  3624                           ;main.c: 156: s_flg = 0;
  3625  0051  01AD               	clrf	_s_flg
  3626  0052                     l2136:	
  3627                           
  3628                           ;main.c: 159: if(r_flg){
  3629  0052  082A               	movf	_r_flg,w
  3630  0053  1903               	btfsc	3,2
  3631  0054  2861               	goto	l178
  3632                           
  3633                           ;main.c: 160: seconds++;
  3634  0055  3001               	movlw	1
  3635  0056  07A2               	addwf	_seconds,f
  3636  0057  3000               	movlw	0
  3637  0058  3DA3               	addwfc	_seconds+1,f
  3638                           
  3639                           ;main.c: 161: millis = 0;
  3640  0059  01A0               	clrf	_millis
  3641  005A  01A1               	clrf	_millis+1
  3642                           
  3643                           ;main.c: 162: LED_blue_flg = 1;
  3644  005B  01A4               	clrf	_LED_blue_flg
  3645  005C  0AA4               	incf	_LED_blue_flg,f
  3646                           
  3647                           ;main.c: 163: do { LATCbits.LATC1 = 0; } while(0);
  3648  005D  1098               	bcf	24,1	;volatile
  3649                           
  3650                           ;main.c: 164: s_flg = 1;
  3651  005E  01AD               	clrf	_s_flg
  3652  005F  0AAD               	incf	_s_flg,f
  3653                           
  3654                           ;main.c: 165: r_flg = 0;
  3655  0060  01AA               	clrf	_r_flg
  3656  0061                     l178:	
  3657                           
  3658                           ;main.c: 166: }
  3659                           ;main.c: 169: if(seconds > 9){
  3660  0061  3000               	movlw	0
  3661  0062  0223               	subwf	_seconds+1,w
  3662  0063  300A               	movlw	10
  3663  0064  1903               	skipnz
  3664  0065  0222               	subwf	_seconds,w
  3665  0066  1C03               	skipc
  3666  0067  28A7               	goto	l2186
  3667                           
  3668                           ;main.c: 170: seconds = 0;
  3669  0068  01A2               	clrf	_seconds
  3670  0069  01A3               	clrf	_seconds+1
  3671                           
  3672                           ;main.c: 171: get_time_date();
  3673  006A  3181  21D0  3180   	fcall	_get_time_date
  3674                           
  3675                           ;main.c: 174: if((hour == 10) && (minute == 0) && ((weekDay == 2) || (weekDay == 4) || (
      +                          weekDay == 6)) && !relay_on_flg){
  3676  006D  300A               	movlw	10
  3677  006E  0020               	movlb	0	; select bank0
  3678  006F  0626               	xorwf	_hour,w
  3679  0070  1D03               	btfss	3,2
  3680  0071  288A               	goto	l2168
  3681  0072  0827               	movf	_minute,w
  3682  0073  1D03               	btfss	3,2
  3683  0074  288A               	goto	l2168
  3684  0075  3002               	movlw	2
  3685  0076  067C               	xorwf	_weekDay,w
  3686  0077  1903               	btfsc	3,2
  3687  0078  2881               	goto	l2164
  3688  0079  3004               	movlw	4
  3689  007A  067C               	xorwf	_weekDay,w
  3690  007B  1903               	btfsc	3,2
  3691  007C  2881               	goto	l2164
  3692  007D  3006               	movlw	6
  3693  007E  067C               	xorwf	_weekDay,w
  3694  007F  1D03               	btfss	3,2
  3695  0080  288A               	goto	l2168
  3696  0081                     l2164:	
  3697  0081  082B               	movf	_relay_on_flg,w
  3698  0082  1D03               	btfss	3,2
  3699  0083  288A               	goto	l2168
  3700                           
  3701                           ;main.c: 175: relay_on_flg = 1;
  3702  0084  01AB               	clrf	_relay_on_flg
  3703  0085  0AAB               	incf	_relay_on_flg,f
  3704                           
  3705                           ;main.c: 177: buzzer_flg = 1;
  3706  0086  01A5               	clrf	_buzzer_flg
  3707  0087  0AA5               	incf	_buzzer_flg,f
  3708                           
  3709                           ;main.c: 178: NCO1CONbits.N1EN = 1;
  3710  0088  002B               	movlb	11	; select bank11
  3711  0089  1792               	bsf	18,7	;volatile
  3712  008A                     l2168:	
  3713                           
  3714                           ;main.c: 179: }
  3715                           ;main.c: 180: if((hour == 10) && (minute == 15) && ((weekDay == 2) || (weekDay == 4) || 
      +                          (weekDay == 6)) && relay_on_flg){
  3716  008A  300A               	movlw	10
  3717  008B  0020               	movlb	0	; select bank0
  3718  008C  0626               	xorwf	_hour,w
  3719  008D  1D03               	btfss	3,2
  3720  008E  28A7               	goto	l2186
  3721  008F  300F               	movlw	15
  3722  0090  0627               	xorwf	_minute,w
  3723  0091  1D03               	btfss	3,2
  3724  0092  28A7               	goto	l2186
  3725  0093  3002               	movlw	2
  3726  0094  067C               	xorwf	_weekDay,w
  3727  0095  1903               	btfsc	3,2
  3728  0096  289F               	goto	l2178
  3729  0097  3004               	movlw	4
  3730  0098  067C               	xorwf	_weekDay,w
  3731  0099  1903               	btfsc	3,2
  3732  009A  289F               	goto	l2178
  3733  009B  3006               	movlw	6
  3734  009C  067C               	xorwf	_weekDay,w
  3735  009D  1D03               	btfss	3,2
  3736  009E  28A7               	goto	l2186
  3737  009F                     l2178:	
  3738  009F  082B               	movf	_relay_on_flg,w
  3739  00A0  1903               	btfsc	3,2
  3740  00A1  28A7               	goto	l2186
  3741                           
  3742                           ;main.c: 181: relay_on_flg = 0;
  3743  00A2  01AB               	clrf	_relay_on_flg
  3744                           
  3745                           ;main.c: 183: buzzer_flg = 1;
  3746  00A3  01A5               	clrf	_buzzer_flg
  3747  00A4  0AA5               	incf	_buzzer_flg,f
  3748                           
  3749                           ;main.c: 184: NCO1CONbits.N1EN = 1;
  3750  00A5  002B               	movlb	11	; select bank11
  3751  00A6  1792               	bsf	18,7	;volatile
  3752  00A7                     l2186:	
  3753                           
  3754                           ;main.c: 185: }
  3755                           ;main.c: 186: }
  3756                           ;main.c: 189: if(relay_on_flg)
  3757  00A7  0020               	movlb	0	; select bank0
  3758  00A8  082B               	movf	_relay_on_flg,w
  3759  00A9  1903               	btfsc	3,2
  3760  00AA  28AD               	goto	l188
  3761                           
  3762                           ;main.c: 190: LATBbits.LATB5 = 1;
  3763  00AB  1697               	bsf	23,5	;volatile
  3764  00AC  28AE               	goto	l2190
  3765  00AD                     l188:	
  3766                           
  3767                           ;main.c: 191: else
  3768                           ;main.c: 192: LATBbits.LATB5 = 0;
  3769  00AD  1297               	bcf	23,5	;volatile
  3770  00AE                     l2190:	
  3771                           
  3772                           ;main.c: 195: if((millis > 25) && LED_blue_flg){
  3773  00AE  3000               	movlw	0
  3774  00AF  0221               	subwf	_millis+1,w
  3775  00B0  301A               	movlw	26
  3776  00B1  1903               	skipnz
  3777  00B2  0220               	subwf	_millis,w
  3778  00B3  1C03               	skipc
  3779  00B4  28BA               	goto	l2196
  3780  00B5  0824               	movf	_LED_blue_flg,w
  3781  00B6  1903               	btfsc	3,2
  3782  00B7  28BA               	goto	l2196
  3783                           
  3784                           ;main.c: 196: do { LATCbits.LATC1 = 1; } while(0);
  3785  00B8  1498               	bsf	24,1	;volatile
  3786                           
  3787                           ;main.c: 197: LED_blue_flg = 0;
  3788  00B9  01A4               	clrf	_LED_blue_flg
  3789  00BA                     l2196:	
  3790                           
  3791                           ;main.c: 198: }
  3792                           ;main.c: 201: if((millis > 100) && (millis <= 199) && buzzer_flg){
  3793  00BA  3000               	movlw	0
  3794  00BB  0221               	subwf	_millis+1,w
  3795  00BC  3065               	movlw	101
  3796  00BD  1903               	skipnz
  3797  00BE  0220               	subwf	_millis,w
  3798  00BF  1C03               	skipc
  3799  00C0  28CD               	goto	l2204
  3800  00C1  3000               	movlw	0
  3801  00C2  0221               	subwf	_millis+1,w
  3802  00C3  30C8               	movlw	200
  3803  00C4  1903               	skipnz
  3804  00C5  0220               	subwf	_millis,w
  3805  00C6  1803               	skipnc
  3806  00C7  28CD               	goto	l2204
  3807  00C8  0825               	movf	_buzzer_flg,w
  3808  00C9  1903               	btfsc	3,2
  3809  00CA  28CD               	goto	l2204
  3810                           
  3811                           ;main.c: 202: NCO1CONbits.N1EN = 0;
  3812  00CB  002B               	movlb	11	; select bank11
  3813  00CC  1392               	bcf	18,7	;volatile
  3814  00CD                     l2204:	
  3815                           
  3816                           ;main.c: 203: }
  3817                           ;main.c: 204: if((millis > 200) && (millis <= 299) && buzzer_flg){
  3818  00CD  3000               	movlw	0
  3819  00CE  0020               	movlb	0	; select bank0
  3820  00CF  0221               	subwf	_millis+1,w
  3821  00D0  30C9               	movlw	201
  3822  00D1  1903               	skipnz
  3823  00D2  0220               	subwf	_millis,w
  3824  00D3  1C03               	skipc
  3825  00D4  28E1               	goto	l2212
  3826  00D5  3001               	movlw	1
  3827  00D6  0221               	subwf	_millis+1,w
  3828  00D7  302C               	movlw	44
  3829  00D8  1903               	skipnz
  3830  00D9  0220               	subwf	_millis,w
  3831  00DA  1803               	skipnc
  3832  00DB  28E1               	goto	l2212
  3833  00DC  0825               	movf	_buzzer_flg,w
  3834  00DD  1903               	btfsc	3,2
  3835  00DE  28E1               	goto	l2212
  3836                           
  3837                           ;main.c: 205: NCO1CONbits.N1EN = 1;
  3838  00DF  002B               	movlb	11	; select bank11
  3839  00E0  1792               	bsf	18,7	;volatile
  3840  00E1                     l2212:	
  3841                           
  3842                           ;main.c: 206: }
  3843                           ;main.c: 207: if((millis > 300) && (millis <= 399) && buzzer_flg){
  3844  00E1  3001               	movlw	1
  3845  00E2  0020               	movlb	0	; select bank0
  3846  00E3  0221               	subwf	_millis+1,w
  3847  00E4  302D               	movlw	45
  3848  00E5  1903               	skipnz
  3849  00E6  0220               	subwf	_millis,w
  3850  00E7  1C03               	skipc
  3851  00E8  28F5               	goto	l2220
  3852  00E9  3001               	movlw	1
  3853  00EA  0221               	subwf	_millis+1,w
  3854  00EB  3090               	movlw	144
  3855  00EC  1903               	skipnz
  3856  00ED  0220               	subwf	_millis,w
  3857  00EE  1803               	skipnc
  3858  00EF  28F5               	goto	l2220
  3859  00F0  0825               	movf	_buzzer_flg,w
  3860  00F1  1903               	btfsc	3,2
  3861  00F2  28F5               	goto	l2220
  3862                           
  3863                           ;main.c: 208: NCO1CONbits.N1EN = 0;
  3864  00F3  002B               	movlb	11	; select bank11
  3865  00F4  1392               	bcf	18,7	;volatile
  3866  00F5                     l2220:	
  3867                           
  3868                           ;main.c: 209: }
  3869                           ;main.c: 210: if((millis > 400) && (millis <= 499) && buzzer_flg){
  3870  00F5  3001               	movlw	1
  3871  00F6  0020               	movlb	0	; select bank0
  3872  00F7  0221               	subwf	_millis+1,w
  3873  00F8  3091               	movlw	145
  3874  00F9  1903               	skipnz
  3875  00FA  0220               	subwf	_millis,w
  3876  00FB  1C03               	skipc
  3877  00FC  2909               	goto	l2228
  3878  00FD  3001               	movlw	1
  3879  00FE  0221               	subwf	_millis+1,w
  3880  00FF  30F4               	movlw	244
  3881  0100  1903               	skipnz
  3882  0101  0220               	subwf	_millis,w
  3883  0102  1803               	skipnc
  3884  0103  2909               	goto	l2228
  3885  0104  0825               	movf	_buzzer_flg,w
  3886  0105  1903               	btfsc	3,2
  3887  0106  2909               	goto	l2228
  3888                           
  3889                           ;main.c: 211: NCO1CONbits.N1EN = 1;
  3890  0107  002B               	movlb	11	; select bank11
  3891  0108  1792               	bsf	18,7	;volatile
  3892  0109                     l2228:	
  3893                           
  3894                           ;main.c: 212: }
  3895                           ;main.c: 213: if((millis > 500) && buzzer_flg){
  3896  0109  3001               	movlw	1
  3897  010A  0020               	movlb	0	; select bank0
  3898  010B  0221               	subwf	_millis+1,w
  3899  010C  30F5               	movlw	245
  3900  010D  1903               	skipnz
  3901  010E  0220               	subwf	_millis,w
  3902  010F  1C03               	skipc
  3903  0110  2844               	goto	l2126
  3904  0111  0825               	movf	_buzzer_flg,w
  3905  0112  1903               	btfsc	3,2
  3906  0113  2844               	goto	l2126
  3907                           
  3908                           ;main.c: 214: NCO1CONbits.N1EN = 0;
  3909  0114  002B               	movlb	11	; select bank11
  3910  0115  1392               	bcf	18,7	;volatile
  3911                           
  3912                           ;main.c: 215: buzzer_flg = 0;
  3913  0116  0020               	movlb	0	; select bank0
  3914  0117  01A5               	clrf	_buzzer_flg
  3915  0118  2844               	goto	l2126
  3916  0119                     __end_of_main:	
  3917                           
  3918                           	psect	text1
  3919  01D0                     __ptext1:	
  3920 ;; *************** function _get_time_date *****************
  3921 ;; Defined at:
  3922 ;;		line 233 in file "main.c"
  3923 ;; Parameters:    Size  Location     Type
  3924 ;;		None
  3925 ;; Auto vars:     Size  Location     Type
  3926 ;;  i               1    0        unsigned char 
  3927 ;;  dev_addrs       1    0        unsigned char 
  3928 ;; Return value:  Size  Location     Type
  3929 ;;                  1    wreg      void 
  3930 ;; Registers used:
  3931 ;;		wreg, fsr1l, fsr1h, status,2, status,0, pclath, cstack
  3932 ;; Tracked objects:
  3933 ;;		On entry : 0/0
  3934 ;;		On exit  : 0/0
  3935 ;;		Unchanged: 0/0
  3936 ;; Data sizes:     COMMON   BANK0   BANK1   BANK2   BANK3   BANK4   BANK5   BANK6   BANK7   BANK8   BANK9  BANK10  BANK1
      +1  BANK12
  3937 ;;      Params:         0       0       0       0       0       0       0       0       0       0       0       0       
      +0       0
  3938 ;;      Locals:         0       0       0       0       0       0       0       0       0       0       0       0       
      +0       0
  3939 ;;      Temps:          0       2       0       0       0       0       0       0       0       0       0       0       
      +0       0
  3940 ;;      Totals:         0       2       0       0       0       0       0       0       0       0       0       0       
      +0       0
  3941 ;;Total ram usage:        2 bytes
  3942 ;; Hardware stack levels used:    1
  3943 ;; Hardware stack levels required when called:    6
  3944 ;; This function calls:
  3945 ;;		_bcdToDec
  3946 ;;		_read_ds1307
  3947 ;; This function is called by:
  3948 ;;		_main
  3949 ;; This function uses a non-reentrant model
  3950 ;;
  3951                           
  3952                           
  3953                           ;psect for function _get_time_date
  3954  01D0                     _get_time_date:	
  3955                           
  3956                           ;main.c: 235: byte dev_addrs;
  3957                           ;main.c: 236: byte i;
  3958                           ;main.c: 238: read_ds1307(0, pData, 8);
  3959                           
  3960                           ;incstack = 0
  3961                           ; Regs used in _get_time_date: [wreg+fsr1l+fsr1h+status,2+status,0+pclath+cstack]
  3962  01D0  30A0               	movlw	(low (_pData| 0))& (0+255)
  3963  01D1  0020               	movlb	0	; select bank0
  3964  01D2  00B7               	movwf	??_get_time_date
  3965  01D3  0837               	movf	??_get_time_date,w
  3966  01D4  00F4               	movwf	read_ds1307@ptr
  3967  01D5  3008               	movlw	8
  3968  01D6  00B8               	movwf	??_get_time_date+1
  3969  01D7  0838               	movf	??_get_time_date+1,w
  3970  01D8  00F5               	movwf	read_ds1307@len
  3971  01D9  3000               	movlw	0
  3972  01DA  3181  2119  3181   	fcall	_read_ds1307
  3973                           
  3974                           ;main.c: 240: second = bcdToDec(pData[0]);
  3975  01DD  0021               	movlb	1	; select bank1
  3976  01DE  0820               	movf	_pData^(0+128),w
  3977  01DF  3182  22E1  3181   	fcall	_bcdToDec
  3978  01E2  0020               	movlb	0	; select bank0
  3979  01E3  00B7               	movwf	??_get_time_date
  3980  01E4  0837               	movf	??_get_time_date,w
  3981  01E5  00AE               	movwf	_second
  3982                           
  3983                           ;main.c: 241: minute = bcdToDec(pData[1]);
  3984  01E6  0021               	movlb	1	; select bank1
  3985  01E7  0821               	movf	(_pData^(0+128)+1),w
  3986  01E8  3182  22E1  3181   	fcall	_bcdToDec
  3987  01EB  0020               	movlb	0	; select bank0
  3988  01EC  00B7               	movwf	??_get_time_date
  3989  01ED  0837               	movf	??_get_time_date,w
  3990  01EE  00A7               	movwf	_minute
  3991                           
  3992                           ;main.c: 242: hour = bcdToDec(pData[2] & 0b111111);
  3993  01EF  0021               	movlb	1	; select bank1
  3994  01F0  0822               	movf	(_pData^(0+128)+2),w
  3995  01F1  393F               	andlw	63
  3996  01F2  3182  22E1  3181   	fcall	_bcdToDec
  3997  01F5  0020               	movlb	0	; select bank0
  3998  01F6  00B7               	movwf	??_get_time_date
  3999  01F7  0837               	movf	??_get_time_date,w
  4000  01F8  00A6               	movwf	_hour
  4001                           
  4002                           ;main.c: 243: weekDay = bcdToDec(pData[3]);
  4003  01F9  0021               	movlb	1	; select bank1
  4004  01FA  0823               	movf	(_pData^(0+128)+3),w
  4005  01FB  3182  22E1  3181   	fcall	_bcdToDec
  4006  01FE  0020               	movlb	0	; select bank0
  4007  01FF  00B7               	movwf	??_get_time_date
  4008  0200  0837               	movf	??_get_time_date,w
  4009  0201  00FC               	movwf	_weekDay
  4010                           
  4011                           ;main.c: 244: monthDay = bcdToDec(pData[4]);
  4012  0202  0021               	movlb	1	; select bank1
  4013  0203  0824               	movf	(_pData^(0+128)+4),w
  4014  0204  3182  22E1  3181   	fcall	_bcdToDec
  4015  0207  0020               	movlb	0	; select bank0
  4016  0208  00B7               	movwf	??_get_time_date
  4017  0209  0837               	movf	??_get_time_date,w
  4018  020A  00A9               	movwf	_monthDay
  4019                           
  4020                           ;main.c: 245: month = bcdToDec(pData[5]);
  4021  020B  0021               	movlb	1	; select bank1
  4022  020C  0825               	movf	(_pData^(0+128)+5),w
  4023  020D  3182  22E1  3181   	fcall	_bcdToDec
  4024  0210  0020               	movlb	0	; select bank0
  4025  0211  00B7               	movwf	??_get_time_date
  4026  0212  0837               	movf	??_get_time_date,w
  4027  0213  00A8               	movwf	_month
  4028                           
  4029                           ;main.c: 246: year = bcdToDec(pData[6]);
  4030  0214  0021               	movlb	1	; select bank1
  4031  0215  0826               	movf	(_pData^(0+128)+6),w
  4032  0216  3182  22E1         	fcall	_bcdToDec
  4033  0218  0020               	movlb	0	; select bank0
  4034  0219  00B7               	movwf	??_get_time_date
  4035  021A  0837               	movf	??_get_time_date,w
  4036  021B  00AF               	movwf	_year
  4037                           
  4038                           ;main.c: 247: rtc_config = pData[7];
  4039  021C  0021               	movlb	1	; select bank1
  4040  021D  0827               	movf	(_pData^(0+128)+7),w
  4041  021E  0020               	movlb	0	; select bank0
  4042  021F  00B7               	movwf	??_get_time_date
  4043  0220  0837               	movf	??_get_time_date,w
  4044  0221  00AC               	movwf	_rtc_config
  4045  0222  0008               	return
  4046  0223                     __end_of_get_time_date:	
  4047                           
  4048                           	psect	text2
  4049  0119                     __ptext2:	
  4050 ;; *************** function _read_ds1307 *****************
  4051 ;; Defined at:
  4052 ;;		line 364 in file "main.c"
  4053 ;; Parameters:    Size  Location     Type
  4054 ;;  wdr_addrs       1    wreg     unsigned char 
  4055 ;;  ptr             1    4[COMMON] PTR unsigned char 
  4056 ;;		 -> pData(60), 
  4057 ;;  len             1    5[COMMON] unsigned char 
  4058 ;; Auto vars:     Size  Location     Type
  4059 ;;  wdr_addrs       1    0[BANK0 ] unsigned char 
  4060 ;;  j               1    4[BANK0 ] unsigned char 
  4061 ;;  input_data      1    3[BANK0 ] unsigned char 
  4062 ;;  dev_addrs       1    2[BANK0 ] unsigned char 
  4063 ;;  i               1    1[BANK0 ] unsigned char 
  4064 ;; Return value:  Size  Location     Type
  4065 ;;                  1    wreg      void 
  4066 ;; Registers used:
  4067 ;;		wreg, fsr1l, fsr1h, status,2, status,0, pclath, cstack
  4068 ;; Tracked objects:
  4069 ;;		On entry : 0/0
  4070 ;;		On exit  : 0/0
  4071 ;;		Unchanged: 0/0
  4072 ;; Data sizes:     COMMON   BANK0   BANK1   BANK2   BANK3   BANK4   BANK5   BANK6   BANK7   BANK8   BANK9  BANK10  BANK1
      +1  BANK12
  4073 ;;      Params:         2       0       0       0       0       0       0       0       0       0       0       0       
      +0       0
  4074 ;;      Locals:         0       5       0       0       0       0       0       0       0       0       0       0       
      +0       0
  4075 ;;      Temps:          2       0       0       0       0       0       0       0       0       0       0       0       
      +0       0
  4076 ;;      Totals:         4       5       0       0       0       0       0       0       0       0       0       0       
      +0       0
  4077 ;;Total ram usage:        9 bytes
  4078 ;; Hardware stack levels used:    1
  4079 ;; Hardware stack levels required when called:    5
  4080 ;; This function calls:
  4081 ;;		_delay_10us
  4082 ;;		_i2c_start
  4083 ;;		_i2c_stop
  4084 ;;		_i2c_write
  4085 ;; This function is called by:
  4086 ;;		_get_time_date
  4087 ;; This function uses a non-reentrant model
  4088 ;;
  4089                           
  4090                           
  4091                           ;psect for function _read_ds1307
  4092  0119                     _read_ds1307:	
  4093                           
  4094                           ;incstack = 0
  4095                           ; Regs used in _read_ds1307: [wreg+fsr1l+fsr1h+status,2+status,0+pclath+cstack]
  4096                           ;read_ds1307@wdr_addrs stored from wreg
  4097  0119  0020               	movlb	0	; select bank0
  4098  011A  00B0               	movwf	read_ds1307@wdr_addrs
  4099                           
  4100                           ;main.c: 366: byte dev_addrs;
  4101                           ;main.c: 367: byte i,j,input_data;
  4102                           ;main.c: 370: dev_addrs = 0x68 << 1;
  4103  011B  30D0               	movlw	208
  4104  011C  00F6               	movwf	??_read_ds1307
  4105  011D  0876               	movf	??_read_ds1307,w
  4106  011E  00B2               	movwf	read_ds1307@dev_addrs
  4107                           
  4108                           ;main.c: 371: i2c_start();
  4109  011F  3183  2328  3181   	fcall	_i2c_start
  4110                           
  4111                           ;main.c: 372: i2c_write(dev_addrs);
  4112  0122  0020               	movlb	0	; select bank0
  4113  0123  0832               	movf	read_ds1307@dev_addrs,w
  4114  0124  3182  2274  3181   	fcall	_i2c_write
  4115                           
  4116                           ;main.c: 373: i2c_write(wdr_addrs);
  4117  0127  0020               	movlb	0	; select bank0
  4118  0128  0830               	movf	read_ds1307@wdr_addrs,w
  4119  0129  3182  2274  3181   	fcall	_i2c_write
  4120                           
  4121                           ;main.c: 374: i2c_start();
  4122  012C  3183  2328  3181   	fcall	_i2c_start
  4123                           
  4124                           ;main.c: 377: dev_addrs |= 0x01;
  4125  012F  0020               	movlb	0	; select bank0
  4126  0130  1432               	bsf	read_ds1307@dev_addrs,0
  4127                           
  4128                           ;main.c: 378: i2c_write(dev_addrs);
  4129  0131  0832               	movf	read_ds1307@dev_addrs,w
  4130  0132  3182  2274  3181   	fcall	_i2c_write
  4131                           
  4132                           ;main.c: 381: do { TRISCbits.TRISC4 = 1; } while(0);
  4133  0135  0020               	movlb	0	; select bank0
  4134  0136  1613               	bsf	19,4	;volatile
  4135                           
  4136                           ;main.c: 382: delay_10us();
  4137  0137  3183  2392  3181   	fcall	_delay_10us
  4138                           
  4139                           ;main.c: 383: for(i = 0;i < len-1;i++){
  4140  013A  0020               	movlb	0	; select bank0
  4141  013B  01B1               	clrf	read_ds1307@i
  4142  013C                     l2038:	
  4143  013C  0875               	movf	read_ds1307@len,w
  4144  013D  3EFF               	addlw	255
  4145  013E  00F6               	movwf	??_read_ds1307
  4146  013F  30FF               	movlw	255
  4147  0140  1803               	skipnc
  4148  0141  3000               	movlw	0
  4149  0142  00F7               	movwf	??_read_ds1307+1
  4150  0143  0877               	movf	??_read_ds1307+1,w
  4151  0144  3A80               	xorlw	128
  4152  0145  3C80               	sublw	128
  4153  0146  1D03               	skipz
  4154  0147  294A               	goto	u1565
  4155  0148  0876               	movf	??_read_ds1307,w
  4156  0149  0231               	subwf	read_ds1307@i,w
  4157  014A                     u1565:	
  4158  014A  1803               	btfsc	3,0
  4159  014B  2991               	goto	l2040
  4160                           
  4161                           ;main.c: 384: input_data = 0x00;
  4162  014C  0020               	movlb	0	; select bank0
  4163  014D  01B3               	clrf	read_ds1307@input_data
  4164                           
  4165                           ;main.c: 385: for(j = 0; j < 8; j++){
  4166  014E  01B4               	clrf	read_ds1307@j
  4167  014F  3008               	movlw	8
  4168  0150  0234               	subwf	read_ds1307@j,w
  4169  0151  1803               	btfsc	3,0
  4170  0152  2970               	goto	l231
  4171                           
  4172                           ;main.c: 386: input_data <<= 1;
  4173  0153  1003               	clrc
  4174  0154                     L1:	
  4175  0154  0DB3               	rlf	read_ds1307@input_data,f
  4176                           
  4177                           ;main.c: 387: do { LATCbits.LATC3 = 1; } while(0);
  4178  0155  1598               	bsf	24,3	;volatile
  4179                           
  4180                           ;main.c: 388: delay_10us();
  4181  0156  3183  2392  3181   	fcall	_delay_10us
  4182                           
  4183                           ;main.c: 389: input_data |= PORTCbits.RC4;
  4184  0159  0020               	movlb	0	; select bank0
  4185  015A  0E0E               	swapf	14,w	;volatile
  4186  015B  3901               	andlw	1
  4187  015C  00F6               	movwf	??_read_ds1307
  4188  015D  0876               	movf	??_read_ds1307,w
  4189  015E  04B3               	iorwf	read_ds1307@input_data,f
  4190                           
  4191                           ;main.c: 390: delay_10us();
  4192  015F  3183  2392  3181   	fcall	_delay_10us
  4193                           
  4194                           ;main.c: 391: do { LATCbits.LATC3 = 0; } while(0);
  4195  0162  0020               	movlb	0	; select bank0
  4196  0163  1198               	bcf	24,3	;volatile
  4197                           
  4198                           ;main.c: 392: delay_10us();
  4199  0164  3183  2392  3181   	fcall	_delay_10us
  4200  0167  3001               	movlw	1
  4201  0168  00F6               	movwf	??_read_ds1307
  4202  0169  0876               	movf	??_read_ds1307,w
  4203  016A  0020               	movlb	0	; select bank0
  4204  016B  07B4               	addwf	read_ds1307@j,f
  4205  016C  3008               	movlw	8
  4206  016D  0234               	subwf	read_ds1307@j,w
  4207  016E  1C03               	skipc
  4208  016F  2954               	goto	L1
  4209  0170                     l231:	
  4210                           ;main.c: 393: }
  4211                           ;main.c: 395: do { LATCbits.LATC4 = 0; } while(0);
  4212                           
  4213  0170  1218               	bcf	24,4	;volatile
  4214                           
  4215                           ;main.c: 396: do { TRISCbits.TRISC4 = 0; } while(0);
  4216  0171  1213               	bcf	19,4	;volatile
  4217                           
  4218                           ;main.c: 397: delay_10us();
  4219  0172  3183  2392  3181   	fcall	_delay_10us
  4220                           
  4221                           ;main.c: 398: do { LATCbits.LATC3 = 1; } while(0);
  4222  0175  0020               	movlb	0	; select bank0
  4223  0176  1598               	bsf	24,3	;volatile
  4224                           
  4225                           ;main.c: 399: delay_10us();
  4226  0177  3183  2392  3181   	fcall	_delay_10us
  4227                           
  4228                           ;main.c: 400: do { LATCbits.LATC3 = 0; } while(0);
  4229  017A  0020               	movlb	0	; select bank0
  4230  017B  1198               	bcf	24,3	;volatile
  4231                           
  4232                           ;main.c: 401: delay_10us();
  4233  017C  3183  2392  3181   	fcall	_delay_10us
  4234                           
  4235                           ;main.c: 402: do { TRISCbits.TRISC4 = 1; } while(0);
  4236  017F  0020               	movlb	0	; select bank0
  4237  0180  1613               	bsf	19,4	;volatile
  4238                           
  4239                           ;main.c: 403: *ptr++ = input_data;
  4240  0181  0833               	movf	read_ds1307@input_data,w
  4241  0182  00F6               	movwf	??_read_ds1307
  4242  0183  0874               	movf	read_ds1307@ptr,w
  4243  0184  0086               	movwf	6
  4244  0185  0187               	clrf	7
  4245  0186  0876               	movf	??_read_ds1307,w
  4246  0187  0081               	movwf	1
  4247  0188  3001               	movlw	1
  4248  0189  00F6               	movwf	??_read_ds1307
  4249  018A  0876               	movf	??_read_ds1307,w
  4250  018B  07F4               	addwf	read_ds1307@ptr,f
  4251  018C  3001               	movlw	1
  4252  018D  00F6               	movwf	??_read_ds1307
  4253  018E  0876               	movf	??_read_ds1307,w
  4254  018F  07B1               	addwf	read_ds1307@i,f
  4255  0190  293C               	goto	l2038
  4256  0191                     l2040:	
  4257                           
  4258                           ;main.c: 404: }
  4259                           ;main.c: 407: input_data = 0x00;
  4260  0191  0020               	movlb	0	; select bank0
  4261  0192  01B3               	clrf	read_ds1307@input_data
  4262                           
  4263                           ;main.c: 408: for(j = 0; j < 8; j++){
  4264  0193  01B4               	clrf	read_ds1307@j
  4265  0194  3008               	movlw	8
  4266  0195  0234               	subwf	read_ds1307@j,w
  4267  0196  1803               	btfsc	3,0
  4268  0197  29B5               	goto	l248
  4269                           
  4270                           ;main.c: 409: input_data <<= 1;
  4271  0198  1003               	clrc
  4272  0199                     L2:	
  4273  0199  0DB3               	rlf	read_ds1307@input_data,f
  4274                           
  4275                           ;main.c: 410: do { LATCbits.LATC3 = 1; } while(0);
  4276  019A  1598               	bsf	24,3	;volatile
  4277                           
  4278                           ;main.c: 411: delay_10us();
  4279  019B  3183  2392  3181   	fcall	_delay_10us
  4280                           
  4281                           ;main.c: 412: input_data |= PORTCbits.RC4;
  4282  019E  0020               	movlb	0	; select bank0
  4283  019F  0E0E               	swapf	14,w	;volatile
  4284  01A0  3901               	andlw	1
  4285  01A1  00F6               	movwf	??_read_ds1307
  4286  01A2  0876               	movf	??_read_ds1307,w
  4287  01A3  04B3               	iorwf	read_ds1307@input_data,f
  4288                           
  4289                           ;main.c: 413: delay_10us();
  4290  01A4  3183  2392  3181   	fcall	_delay_10us
  4291                           
  4292                           ;main.c: 414: do { LATCbits.LATC3 = 0; } while(0);
  4293  01A7  0020               	movlb	0	; select bank0
  4294  01A8  1198               	bcf	24,3	;volatile
  4295                           
  4296                           ;main.c: 415: delay_10us();
  4297  01A9  3183  2392  3181   	fcall	_delay_10us
  4298  01AC  3001               	movlw	1
  4299  01AD  00F6               	movwf	??_read_ds1307
  4300  01AE  0876               	movf	??_read_ds1307,w
  4301  01AF  0020               	movlb	0	; select bank0
  4302  01B0  07B4               	addwf	read_ds1307@j,f
  4303  01B1  3008               	movlw	8
  4304  01B2  0234               	subwf	read_ds1307@j,w
  4305  01B3  1C03               	skipc
  4306  01B4  2999               	goto	L2
  4307  01B5                     l248:	
  4308                           ;main.c: 416: }
  4309                           ;main.c: 418: do { LATCbits.LATC4 = 1; } while(0);
  4310                           
  4311  01B5  1618               	bsf	24,4	;volatile
  4312                           
  4313                           ;main.c: 419: do { TRISCbits.TRISC4 = 0; } while(0);
  4314  01B6  1213               	bcf	19,4	;volatile
  4315                           
  4316                           ;main.c: 420: delay_10us();
  4317  01B7  3183  2392  3181   	fcall	_delay_10us
  4318                           
  4319                           ;main.c: 421: do { LATCbits.LATC3 = 1; } while(0);
  4320  01BA  0020               	movlb	0	; select bank0
  4321  01BB  1598               	bsf	24,3	;volatile
  4322                           
  4323                           ;main.c: 422: delay_10us();
  4324  01BC  3183  2392  3181   	fcall	_delay_10us
  4325                           
  4326                           ;main.c: 423: do { LATCbits.LATC3 = 0; } while(0);
  4327  01BF  0020               	movlb	0	; select bank0
  4328  01C0  1198               	bcf	24,3	;volatile
  4329                           
  4330                           ;main.c: 424: delay_10us();
  4331  01C1  3183  2392  3181   	fcall	_delay_10us
  4332                           
  4333                           ;main.c: 425: do { TRISCbits.TRISC4 = 1; } while(0);
  4334  01C4  0020               	movlb	0	; select bank0
  4335  01C5  1613               	bsf	19,4	;volatile
  4336                           
  4337                           ;main.c: 427: *ptr = input_data;
  4338  01C6  0833               	movf	read_ds1307@input_data,w
  4339  01C7  00F6               	movwf	??_read_ds1307
  4340  01C8  0874               	movf	read_ds1307@ptr,w
  4341  01C9  0086               	movwf	6
  4342  01CA  0187               	clrf	7
  4343  01CB  0876               	movf	??_read_ds1307,w
  4344  01CC  0081               	movwf	1
  4345                           
  4346                           ;main.c: 429: i2c_stop();
  4347  01CD  3182  22FE         	fcall	_i2c_stop
  4348  01CF  0008               	return
  4349  01D0                     __end_of_read_ds1307:	
  4350                           
  4351                           	psect	text3
  4352  0274                     __ptext3:	
  4353 ;; *************** function _i2c_write *****************
  4354 ;; Defined at:
  4355 ;;		line 530 in file "main.c"
  4356 ;; Parameters:    Size  Location     Type
  4357 ;;  output_data     1    wreg     unsigned char 
  4358 ;; Auto vars:     Size  Location     Type
  4359 ;;  output_data     1    2[COMMON] unsigned char 
  4360 ;;  i               1    3[COMMON] unsigned char 
  4361 ;; Return value:  Size  Location     Type
  4362 ;;                  1    wreg      void 
  4363 ;; Registers used:
  4364 ;;		wreg, status,2, status,0, pclath, cstack
  4365 ;; Tracked objects:
  4366 ;;		On entry : 0/0
  4367 ;;		On exit  : 0/0
  4368 ;;		Unchanged: 0/0
  4369 ;; Data sizes:     COMMON   BANK0   BANK1   BANK2   BANK3   BANK4   BANK5   BANK6   BANK7   BANK8   BANK9  BANK10  BANK1
      +1  BANK12
  4370 ;;      Params:         0       0       0       0       0       0       0       0       0       0       0       0       
      +0       0
  4371 ;;      Locals:         2       0       0       0       0       0       0       0       0       0       0       0       
      +0       0
  4372 ;;      Temps:          1       0       0       0       0       0       0       0       0       0       0       0       
      +0       0
  4373 ;;      Totals:         3       0       0       0       0       0       0       0       0       0       0       0       
      +0       0
  4374 ;;Total ram usage:        3 bytes
  4375 ;; Hardware stack levels used:    1
  4376 ;; Hardware stack levels required when called:    4
  4377 ;; This function calls:
  4378 ;;		_delay_10us
  4379 ;; This function is called by:
  4380 ;;		_read_ds1307
  4381 ;;		_write_ds1307
  4382 ;; This function uses a non-reentrant model
  4383 ;;
  4384                           
  4385                           
  4386                           ;psect for function _i2c_write
  4387  0274                     _i2c_write:	
  4388                           
  4389                           ;incstack = 0
  4390                           ; Regs used in _i2c_write: [wreg+status,2+status,0+pclath+cstack]
  4391                           ;i2c_write@output_data stored from wreg
  4392  0274  00F2               	movwf	i2c_write@output_data
  4393                           
  4394                           ;main.c: 532: byte i;
  4395                           ;main.c: 533: do { LATCbits.LATC4 = 1; } while(0);
  4396  0275  0020               	movlb	0	; select bank0
  4397  0276  1618               	bsf	24,4	;volatile
  4398                           
  4399                           ;main.c: 534: do { TRISCbits.TRISC4 = 0; } while(0);
  4400  0277  1213               	bcf	19,4	;volatile
  4401                           
  4402                           ;main.c: 535: delay_10us();
  4403  0278  3183  2392  3182   	fcall	_delay_10us
  4404                           
  4405                           ;main.c: 536: for(i = 0; i < 8; i++){
  4406  027B  01F3               	clrf	i2c_write@i
  4407  027C  3008               	movlw	8
  4408  027D  0273               	subwf	i2c_write@i,w
  4409  027E  1803               	btfsc	3,0
  4410  027F  2A9E               	goto	l303
  4411  0280                     l297:	
  4412                           
  4413                           ;main.c: 538: LATCbits.LATC4 = ((output_data & 0x80) ? 1 : 0);
  4414  0280  1FF2               	btfss	i2c_write@output_data,7
  4415  0281  2A85               	goto	u1390
  4416  0282  0020               	movlb	0	; select bank0
  4417  0283  1618               	bsf	24,4	;volatile
  4418  0284  2A87               	goto	l1904
  4419  0285                     u1390:	
  4420  0285  0020               	movlb	0	; select bank0
  4421  0286  1218               	bcf	24,4	;volatile
  4422  0287                     l1904:	
  4423                           
  4424                           ;main.c: 539: delay_10us();
  4425  0287  3183  2392  3182   	fcall	_delay_10us
  4426                           
  4427                           ;main.c: 540: output_data <<= 1;
  4428  028A  1003               	clrc
  4429  028B  0DF2               	rlf	i2c_write@output_data,f
  4430                           
  4431                           ;main.c: 541: do { LATCbits.LATC3 = 1; } while(0);
  4432  028C  0020               	movlb	0	; select bank0
  4433  028D  1598               	bsf	24,3	;volatile
  4434                           
  4435                           ;main.c: 542: delay_10us();
  4436  028E  3183  2392  3182   	fcall	_delay_10us
  4437                           
  4438                           ;main.c: 543: do { LATCbits.LATC3 = 0; } while(0);
  4439  0291  0020               	movlb	0	; select bank0
  4440  0292  1198               	bcf	24,3	;volatile
  4441                           
  4442                           ;main.c: 544: delay_10us();
  4443  0293  3183  2392  3182   	fcall	_delay_10us
  4444  0296  3001               	movlw	1
  4445  0297  00F1               	movwf	??_i2c_write
  4446  0298  0871               	movf	??_i2c_write,w
  4447  0299  07F3               	addwf	i2c_write@i,f
  4448  029A  3008               	movlw	8
  4449  029B  0273               	subwf	i2c_write@i,w
  4450  029C  1C03               	skipc
  4451  029D  2A80               	goto	l297
  4452  029E                     l303:	
  4453                           ;main.c: 545: }
  4454                           ;main.c: 547: do { TRISCbits.TRISC4 = 1; } while(0);
  4455                           
  4456  029E  0020               	movlb	0	; select bank0
  4457  029F  1613               	bsf	19,4	;volatile
  4458                           
  4459                           ;main.c: 548: delay_10us();
  4460  02A0  3183  2392  3182   	fcall	_delay_10us
  4461                           
  4462                           ;main.c: 549: do { LATCbits.LATC3 = 1; } while(0);
  4463  02A3  0020               	movlb	0	; select bank0
  4464  02A4  1598               	bsf	24,3	;volatile
  4465                           
  4466                           ;main.c: 550: delay_10us();
  4467  02A5  3183  2392  3182   	fcall	_delay_10us
  4468                           
  4469                           ;main.c: 551: do { LATCbits.LATC3 = 0; } while(0);
  4470  02A8  0020               	movlb	0	; select bank0
  4471  02A9  1198               	bcf	24,3	;volatile
  4472                           
  4473                           ;main.c: 552: delay_10us();
  4474  02AA  3183  2392         	fcall	_delay_10us
  4475                           
  4476                           ;main.c: 553: do { LATCbits.LATC4 = 0; } while(0);
  4477  02AC  0020               	movlb	0	; select bank0
  4478  02AD  1218               	bcf	24,4	;volatile
  4479  02AE  0008               	return
  4480  02AF                     __end_of_i2c_write:	
  4481                           
  4482                           	psect	text4
  4483  02FE                     __ptext4:	
  4484 ;; *************** function _i2c_stop *****************
  4485 ;; Defined at:
  4486 ;;		line 501 in file "main.c"
  4487 ;; Parameters:    Size  Location     Type
  4488 ;;		None
  4489 ;; Auto vars:     Size  Location     Type
  4490 ;;  input_var       1    0        unsigned char 
  4491 ;; Return value:  Size  Location     Type
  4492 ;;                  1    wreg      void 
  4493 ;; Registers used:
  4494 ;;		status,2, status,0, pclath, cstack
  4495 ;; Tracked objects:
  4496 ;;		On entry : 0/0
  4497 ;;		On exit  : 0/0
  4498 ;;		Unchanged: 0/0
  4499 ;; Data sizes:     COMMON   BANK0   BANK1   BANK2   BANK3   BANK4   BANK5   BANK6   BANK7   BANK8   BANK9  BANK10  BANK1
      +1  BANK12
  4500 ;;      Params:         0       0       0       0       0       0       0       0       0       0       0       0       
      +0       0
  4501 ;;      Locals:         0       0       0       0       0       0       0       0       0       0       0       0       
      +0       0
  4502 ;;      Temps:          0       0       0       0       0       0       0       0       0       0       0       0       
      +0       0
  4503 ;;      Totals:         0       0       0       0       0       0       0       0       0       0       0       0       
      +0       0
  4504 ;;Total ram usage:        0 bytes
  4505 ;; Hardware stack levels used:    1
  4506 ;; Hardware stack levels required when called:    4
  4507 ;; This function calls:
  4508 ;;		_delay_10us
  4509 ;; This function is called by:
  4510 ;;		_main
  4511 ;;		_read_ds1307
  4512 ;;		_write_ds1307
  4513 ;; This function uses a non-reentrant model
  4514 ;;
  4515                           
  4516                           
  4517                           ;psect for function _i2c_stop
  4518  02FE                     _i2c_stop:	
  4519                           
  4520                           ;incstack = 0
  4521                           ; Regs used in _i2c_stop: [status,2+status,0+pclath+cstack]
  4522                           ;main.c: 503: byte input_var;
  4523                           ;main.c: 505: do { LATCbits.LATC3 = 0; } while(0);
  4524  02FE  0020               	movlb	0	; select bank0
  4525  02FF  1198               	bcf	24,3	;volatile
  4526                           
  4527                           ;main.c: 506: delay_10us();
  4528  0300  3183  2392  3182   	fcall	_delay_10us
  4529                           
  4530                           ;main.c: 507: do { LATCbits.LATC4 = 0; } while(0);
  4531  0303  0020               	movlb	0	; select bank0
  4532  0304  1218               	bcf	24,4	;volatile
  4533                           
  4534                           ;main.c: 508: do { TRISCbits.TRISC4 = 0; } while(0);
  4535  0305  1213               	bcf	19,4	;volatile
  4536                           
  4537                           ;main.c: 509: delay_10us();
  4538  0306  3183  2392  3182   	fcall	_delay_10us
  4539                           
  4540                           ;main.c: 510: do { LATCbits.LATC3 = 1; } while(0);
  4541  0309  0020               	movlb	0	; select bank0
  4542  030A  1598               	bsf	24,3	;volatile
  4543                           
  4544                           ;main.c: 511: delay_10us();
  4545  030B  3183  2392  3182   	fcall	_delay_10us
  4546                           
  4547                           ;main.c: 512: do { TRISCbits.TRISC4 = 1; } while(0);
  4548  030E  0020               	movlb	0	; select bank0
  4549  030F  1613               	bsf	19,4	;volatile
  4550                           
  4551                           ;main.c: 513: delay_10us();
  4552  0310  3183  2392         	fcall	_delay_10us
  4553  0312  0008               	return
  4554  0313                     __end_of_i2c_stop:	
  4555                           
  4556                           	psect	text5
  4557  0328                     __ptext5:	
  4558 ;; *************** function _i2c_start *****************
  4559 ;; Defined at:
  4560 ;;		line 473 in file "main.c"
  4561 ;; Parameters:    Size  Location     Type
  4562 ;;		None
  4563 ;; Auto vars:     Size  Location     Type
  4564 ;;		None
  4565 ;; Return value:  Size  Location     Type
  4566 ;;                  1    wreg      void 
  4567 ;; Registers used:
  4568 ;;		status,2, status,0, pclath, cstack
  4569 ;; Tracked objects:
  4570 ;;		On entry : 0/0
  4571 ;;		On exit  : 0/0
  4572 ;;		Unchanged: 0/0
  4573 ;; Data sizes:     COMMON   BANK0   BANK1   BANK2   BANK3   BANK4   BANK5   BANK6   BANK7   BANK8   BANK9  BANK10  BANK1
      +1  BANK12
  4574 ;;      Params:         0       0       0       0       0       0       0       0       0       0       0       0       
      +0       0
  4575 ;;      Locals:         0       0       0       0       0       0       0       0       0       0       0       0       
      +0       0
  4576 ;;      Temps:          0       0       0       0       0       0       0       0       0       0       0       0       
      +0       0
  4577 ;;      Totals:         0       0       0       0       0       0       0       0       0       0       0       0       
      +0       0
  4578 ;;Total ram usage:        0 bytes
  4579 ;; Hardware stack levels used:    1
  4580 ;; Hardware stack levels required when called:    4
  4581 ;; This function calls:
  4582 ;;		_delay_10us
  4583 ;; This function is called by:
  4584 ;;		_main
  4585 ;;		_read_ds1307
  4586 ;;		_write_ds1307
  4587 ;; This function uses a non-reentrant model
  4588 ;;
  4589                           
  4590                           
  4591                           ;psect for function _i2c_start
  4592  0328                     _i2c_start:	
  4593                           
  4594                           ;incstack = 0
  4595                           ; Regs used in _i2c_start: [status,2+status,0+pclath+cstack]
  4596                           ;main.c: 476: do { TRISCbits.TRISC4 = 1; } while(0);
  4597  0328  0020               	movlb	0	; select bank0
  4598  0329  1613               	bsf	19,4	;volatile
  4599                           
  4600                           ;main.c: 477: delay_10us();
  4601  032A  3183  2392  3183   	fcall	_delay_10us
  4602                           
  4603                           ;main.c: 478: do { LATCbits.LATC3 = 1; } while(0);
  4604  032D  0020               	movlb	0	; select bank0
  4605  032E  1598               	bsf	24,3	;volatile
  4606                           
  4607                           ;main.c: 479: delay_10us();
  4608  032F  3183  2392  3183   	fcall	_delay_10us
  4609                           
  4610                           ;main.c: 481: do { TRISCbits.TRISC4 = 0; } while(0);
  4611  0332  0020               	movlb	0	; select bank0
  4612  0333  1213               	bcf	19,4	;volatile
  4613                           
  4614                           ;main.c: 482: delay_10us();
  4615  0334  3183  2392  3183   	fcall	_delay_10us
  4616                           
  4617                           ;main.c: 483: do { LATCbits.LATC3 = 0; } while(0);
  4618  0337  0020               	movlb	0	; select bank0
  4619  0338  1198               	bcf	24,3	;volatile
  4620                           
  4621                           ;main.c: 484: delay_10us();
  4622  0339  3183  2392         	fcall	_delay_10us
  4623  033B  0008               	return
  4624  033C                     __end_of_i2c_start:	
  4625                           
  4626                           	psect	text6
  4627  0392                     __ptext6:	
  4628 ;; *************** function _delay_10us *****************
  4629 ;; Defined at:
  4630 ;;		line 449 in file "main.c"
  4631 ;; Parameters:    Size  Location     Type
  4632 ;;		None
  4633 ;; Auto vars:     Size  Location     Type
  4634 ;;		None
  4635 ;; Return value:  Size  Location     Type
  4636 ;;                  1    wreg      void 
  4637 ;; Registers used:
  4638 ;;		None
  4639 ;; Tracked objects:
  4640 ;;		On entry : 0/0
  4641 ;;		On exit  : 0/0
  4642 ;;		Unchanged: 0/0
  4643 ;; Data sizes:     COMMON   BANK0   BANK1   BANK2   BANK3   BANK4   BANK5   BANK6   BANK7   BANK8   BANK9  BANK10  BANK1
      +1  BANK12
  4644 ;;      Params:         0       0       0       0       0       0       0       0       0       0       0       0       
      +0       0
  4645 ;;      Locals:         0       0       0       0       0       0       0       0       0       0       0       0       
      +0       0
  4646 ;;      Temps:          0       0       0       0       0       0       0       0       0       0       0       0       
      +0       0
  4647 ;;      Totals:         0       0       0       0       0       0       0       0       0       0       0       0       
      +0       0
  4648 ;;Total ram usage:        0 bytes
  4649 ;; Hardware stack levels used:    1
  4650 ;; Hardware stack levels required when called:    3
  4651 ;; This function calls:
  4652 ;;		Nothing
  4653 ;; This function is called by:
  4654 ;;		_read_ds1307
  4655 ;;		_i2c_start
  4656 ;;		_i2c_stop
  4657 ;;		_i2c_write
  4658 ;; This function uses a non-reentrant model
  4659 ;;
  4660                           
  4661                           
  4662                           ;psect for function _delay_10us
  4663  0392                     _delay_10us:	
  4664                           
  4665                           ;main.c: 451: __nop();
  4666                           
  4667                           ;incstack = 0
  4668                           ; Regs used in _delay_10us: []
  4669  0392  0000               	nop
  4670  0393  0008               	return
  4671  0394                     __end_of_delay_10us:	
  4672                           
  4673                           	psect	text7
  4674  02E1                     __ptext7:	
  4675 ;; *************** function _bcdToDec *****************
  4676 ;; Defined at:
  4677 ;;		line 308 in file "main.c"
  4678 ;; Parameters:    Size  Location     Type
  4679 ;;  val             1    wreg     unsigned char 
  4680 ;; Auto vars:     Size  Location     Type
  4681 ;;  val             1    6[BANK0 ] unsigned char 
  4682 ;; Return value:  Size  Location     Type
  4683 ;;                  1    wreg      unsigned char 
  4684 ;; Registers used:
  4685 ;;		wreg, status,2, status,0, pclath, cstack
  4686 ;; Tracked objects:
  4687 ;;		On entry : 0/0
  4688 ;;		On exit  : 0/0
  4689 ;;		Unchanged: 0/0
  4690 ;; Data sizes:     COMMON   BANK0   BANK1   BANK2   BANK3   BANK4   BANK5   BANK6   BANK7   BANK8   BANK9  BANK10  BANK1
      +1  BANK12
  4691 ;;      Params:         0       0       0       0       0       0       0       0       0       0       0       0       
      +0       0
  4692 ;;      Locals:         0       1       0       0       0       0       0       0       0       0       0       0       
      +0       0
  4693 ;;      Temps:          0       4       0       0       0       0       0       0       0       0       0       0       
      +0       0
  4694 ;;      Totals:         0       5       0       0       0       0       0       0       0       0       0       0       
      +0       0
  4695 ;;Total ram usage:        5 bytes
  4696 ;; Hardware stack levels used:    1
  4697 ;; Hardware stack levels required when called:    4
  4698 ;; This function calls:
  4699 ;;		___awdiv
  4700 ;;		___bmul
  4701 ;; This function is called by:
  4702 ;;		_get_time_date
  4703 ;; This function uses a non-reentrant model
  4704 ;;
  4705                           
  4706                           
  4707                           ;psect for function _bcdToDec
  4708  02E1                     _bcdToDec:	
  4709                           
  4710                           ;incstack = 0
  4711                           ; Regs used in _bcdToDec: [wreg+status,2+status,0+pclath+cstack]
  4712                           ;bcdToDec@val stored from wreg
  4713  02E1  0020               	movlb	0	; select bank0
  4714  02E2  00B6               	movwf	bcdToDec@val
  4715                           
  4716                           ;main.c: 310: return ( (val/16*10) + (val%16) );
  4717  02E3  300F               	movlw	15
  4718  02E4  0536               	andwf	bcdToDec@val,w
  4719  02E5  00B2               	movwf	??_bcdToDec
  4720  02E6  300A               	movlw	10
  4721  02E7  00B3               	movwf	??_bcdToDec+1
  4722  02E8  0833               	movf	??_bcdToDec+1,w
  4723  02E9  00FA               	movwf	___bmul@multiplicand
  4724  02EA  0836               	movf	bcdToDec@val,w
  4725  02EB  00B4               	movwf	??_bcdToDec+2
  4726  02EC  01B5               	clrf	??_bcdToDec+3
  4727  02ED  0834               	movf	??_bcdToDec+2,w
  4728  02EE  00F3               	movwf	___awdiv@dividend
  4729  02EF  0835               	movf	??_bcdToDec+3,w
  4730  02F0  00F4               	movwf	___awdiv@dividend+1
  4731  02F1  3010               	movlw	16
  4732  02F2  00F1               	movwf	___awdiv@divisor
  4733  02F3  3000               	movlw	0
  4734  02F4  00F2               	movwf	___awdiv@divisor+1
  4735  02F5  3182  2223  3182   	fcall	___awdiv
  4736  02F8  0871               	movf	?___awdiv,w
  4737  02F9  3183  233C         	fcall	___bmul
  4738  02FB  0020               	movlb	0	; select bank0
  4739  02FC  0732               	addwf	??_bcdToDec,w
  4740  02FD  0008               	return
  4741  02FE                     __end_of_bcdToDec:	
  4742                           
  4743                           	psect	text8
  4744  033C                     __ptext8:	
  4745 ;; *************** function ___bmul *****************
  4746 ;; Defined at:
  4747 ;;		line 4 in file "C:\Program Files (x86)\Microchip\xc8\v1.40\sources\common\Umul8.c"
  4748 ;; Parameters:    Size  Location     Type
  4749 ;;  multiplier      1    wreg     unsigned char 
  4750 ;;  multiplicand    1   10[COMMON] unsigned char 
  4751 ;; Auto vars:     Size  Location     Type
  4752 ;;  multiplier      1    1[BANK0 ] unsigned char 
  4753 ;;  product         1    0[BANK0 ] unsigned char 
  4754 ;; Return value:  Size  Location     Type
  4755 ;;                  1    wreg      unsigned char 
  4756 ;; Registers used:
  4757 ;;		wreg, status,2, status,0
  4758 ;; Tracked objects:
  4759 ;;		On entry : 0/0
  4760 ;;		On exit  : 0/0
  4761 ;;		Unchanged: 0/0
  4762 ;; Data sizes:     COMMON   BANK0   BANK1   BANK2   BANK3   BANK4   BANK5   BANK6   BANK7   BANK8   BANK9  BANK10  BANK1
      +1  BANK12
  4763 ;;      Params:         1       0       0       0       0       0       0       0       0       0       0       0       
      +0       0
  4764 ;;      Locals:         0       2       0       0       0       0       0       0       0       0       0       0       
      +0       0
  4765 ;;      Temps:          1       0       0       0       0       0       0       0       0       0       0       0       
      +0       0
  4766 ;;      Totals:         2       2       0       0       0       0       0       0       0       0       0       0       
      +0       0
  4767 ;;Total ram usage:        4 bytes
  4768 ;; Hardware stack levels used:    1
  4769 ;; Hardware stack levels required when called:    3
  4770 ;; This function calls:
  4771 ;;		Nothing
  4772 ;; This function is called by:
  4773 ;;		_bcdToDec
  4774 ;; This function uses a non-reentrant model
  4775 ;;
  4776                           
  4777                           
  4778                           ;psect for function ___bmul
  4779  033C                     ___bmul:	
  4780                           
  4781                           ;incstack = 0
  4782                           ; Regs used in ___bmul: [wreg+status,2+status,0]
  4783                           ;___bmul@multiplier stored from wreg
  4784  033C  0020               	movlb	0	; select bank0
  4785  033D  00B1               	movwf	___bmul@multiplier
  4786  033E  01B0               	clrf	___bmul@product
  4787  033F                     l1930:	
  4788  033F  1C31               	btfss	___bmul@multiplier,0
  4789  0340  2B45               	goto	l1934
  4790  0341  087A               	movf	___bmul@multiplicand,w
  4791  0342  00FB               	movwf	??___bmul
  4792  0343  087B               	movf	??___bmul,w
  4793  0344  07B0               	addwf	___bmul@product,f
  4794  0345                     l1934:	
  4795  0345  1003               	clrc
  4796  0346  0DFA               	rlf	___bmul@multiplicand,f
  4797  0347  1003               	clrc
  4798  0348  0CB1               	rrf	___bmul@multiplier,f
  4799  0349  0831               	movf	___bmul@multiplier,w
  4800  034A  1D03               	btfss	3,2
  4801  034B  2B3F               	goto	l1930
  4802  034C  0830               	movf	___bmul@product,w
  4803  034D  0008               	return
  4804  034E                     __end_of___bmul:	
  4805                           
  4806                           	psect	text9
  4807  0223                     __ptext9:	
  4808 ;; *************** function ___awdiv *****************
  4809 ;; Defined at:
  4810 ;;		line 6 in file "C:\Program Files (x86)\Microchip\xc8\v1.40\sources\common\awdiv.c"
  4811 ;; Parameters:    Size  Location     Type
  4812 ;;  divisor         2    1[COMMON] int 
  4813 ;;  dividend        2    3[COMMON] int 
  4814 ;; Auto vars:     Size  Location     Type
  4815 ;;  quotient        2    8[COMMON] int 
  4816 ;;  sign            1    7[COMMON] unsigned char 
  4817 ;;  counter         1    6[COMMON] unsigned char 
  4818 ;; Return value:  Size  Location     Type
  4819 ;;                  2    1[COMMON] int 
  4820 ;; Registers used:
  4821 ;;		wreg, status,2, status,0
  4822 ;; Tracked objects:
  4823 ;;		On entry : 0/0
  4824 ;;		On exit  : 0/0
  4825 ;;		Unchanged: 0/0
  4826 ;; Data sizes:     COMMON   BANK0   BANK1   BANK2   BANK3   BANK4   BANK5   BANK6   BANK7   BANK8   BANK9  BANK10  BANK1
      +1  BANK12
  4827 ;;      Params:         4       0       0       0       0       0       0       0       0       0       0       0       
      +0       0
  4828 ;;      Locals:         4       0       0       0       0       0       0       0       0       0       0       0       
      +0       0
  4829 ;;      Temps:          1       0       0       0       0       0       0       0       0       0       0       0       
      +0       0
  4830 ;;      Totals:         9       0       0       0       0       0       0       0       0       0       0       0       
      +0       0
  4831 ;;Total ram usage:        9 bytes
  4832 ;; Hardware stack levels used:    1
  4833 ;; Hardware stack levels required when called:    3
  4834 ;; This function calls:
  4835 ;;		Nothing
  4836 ;; This function is called by:
  4837 ;;		_bcdToDec
  4838 ;;		_decToBcd
  4839 ;; This function uses a non-reentrant model
  4840 ;;
  4841                           
  4842                           
  4843                           ;psect for function ___awdiv
  4844  0223                     ___awdiv:	
  4845                           
  4846                           ;incstack = 0
  4847                           ; Regs used in ___awdiv: [wreg+status,2+status,0]
  4848  0223  01F7               	clrf	___awdiv@sign
  4849  0224  1FF2               	btfss	___awdiv@divisor+1,7
  4850  0225  2A2D               	goto	l1950
  4851  0226  09F1               	comf	___awdiv@divisor,f
  4852  0227  09F2               	comf	___awdiv@divisor+1,f
  4853  0228  0AF1               	incf	___awdiv@divisor,f
  4854  0229  1903               	skipnz
  4855  022A  0AF2               	incf	___awdiv@divisor+1,f
  4856  022B  01F7               	clrf	___awdiv@sign
  4857  022C  0AF7               	incf	___awdiv@sign,f
  4858  022D                     l1950:	
  4859  022D  1FF4               	btfss	___awdiv@dividend+1,7
  4860  022E  2A38               	goto	l1956
  4861  022F  09F3               	comf	___awdiv@dividend,f
  4862  0230  09F4               	comf	___awdiv@dividend+1,f
  4863  0231  0AF3               	incf	___awdiv@dividend,f
  4864  0232  1903               	skipnz
  4865  0233  0AF4               	incf	___awdiv@dividend+1,f
  4866  0234  3001               	movlw	1
  4867  0235  00F5               	movwf	??___awdiv
  4868  0236  0875               	movf	??___awdiv,w
  4869  0237  06F7               	xorwf	___awdiv@sign,f
  4870  0238                     l1956:	
  4871  0238  01F8               	clrf	___awdiv@quotient
  4872  0239  01F9               	clrf	___awdiv@quotient+1
  4873  023A  0871               	movf	___awdiv@divisor,w
  4874  023B  0472               	iorwf	___awdiv@divisor+1,w
  4875  023C  1903               	btfsc	3,2
  4876  023D  2A67               	goto	l1978
  4877  023E  01F6               	clrf	___awdiv@counter
  4878  023F  0AF6               	incf	___awdiv@counter,f
  4879  0240                     l1966:	
  4880  0240  1BF2               	btfsc	___awdiv@divisor+1,7
  4881  0241  2A4C               	goto	l1968
  4882  0242  3001               	movlw	1
  4883  0243                     u1475:	
  4884  0243  35F1               	lslf	___awdiv@divisor,f
  4885  0244  0DF2               	rlf	___awdiv@divisor+1,f
  4886  0245  0B89               	decfsz	9,f
  4887  0246  2A43               	goto	u1475
  4888  0247  3001               	movlw	1
  4889  0248  00F5               	movwf	??___awdiv
  4890  0249  0875               	movf	??___awdiv,w
  4891  024A  07F6               	addwf	___awdiv@counter,f
  4892  024B  2A40               	goto	l1966
  4893  024C                     l1968:	
  4894  024C  3001               	movlw	1
  4895  024D                     u1495:	
  4896  024D  35F8               	lslf	___awdiv@quotient,f
  4897  024E  0DF9               	rlf	___awdiv@quotient+1,f
  4898  024F  0B89               	decfsz	9,f
  4899  0250  2A4D               	goto	u1495
  4900  0251  0872               	movf	___awdiv@divisor+1,w
  4901  0252  0274               	subwf	___awdiv@dividend+1,w
  4902  0253  1D03               	skipz
  4903  0254  2A57               	goto	u1505
  4904  0255  0871               	movf	___awdiv@divisor,w
  4905  0256  0273               	subwf	___awdiv@dividend,w
  4906  0257                     u1505:	
  4907  0257  1C03               	skipc
  4908  0258  2A5E               	goto	l1974
  4909  0259  0871               	movf	___awdiv@divisor,w
  4910  025A  02F3               	subwf	___awdiv@dividend,f
  4911  025B  0872               	movf	___awdiv@divisor+1,w
  4912  025C  3BF4               	subwfb	___awdiv@dividend+1,f
  4913  025D  1478               	bsf	___awdiv@quotient,0
  4914  025E                     l1974:	
  4915  025E  3001               	movlw	1
  4916  025F                     u1515:	
  4917  025F  36F2               	lsrf	___awdiv@divisor+1,f
  4918  0260  0CF1               	rrf	___awdiv@divisor,f
  4919  0261  0B89               	decfsz	9,f
  4920  0262  2A5F               	goto	u1515
  4921  0263  3001               	movlw	1
  4922  0264  02F6               	subwf	___awdiv@counter,f
  4923  0265  1D03               	btfss	3,2
  4924  0266  2A4C               	goto	l1968
  4925  0267                     l1978:	
  4926  0267  0877               	movf	___awdiv@sign,w
  4927  0268  1903               	btfsc	3,2
  4928  0269  2A6F               	goto	l1982
  4929  026A  09F8               	comf	___awdiv@quotient,f
  4930  026B  09F9               	comf	___awdiv@quotient+1,f
  4931  026C  0AF8               	incf	___awdiv@quotient,f
  4932  026D  1903               	skipnz
  4933  026E  0AF9               	incf	___awdiv@quotient+1,f
  4934  026F                     l1982:	
  4935  026F  0879               	movf	___awdiv@quotient+1,w
  4936  0270  00F2               	movwf	?___awdiv+1
  4937  0271  0878               	movf	___awdiv@quotient,w
  4938  0272  00F1               	movwf	?___awdiv
  4939  0273  0008               	return
  4940  0274                     __end_of___awdiv:	
  4941                           
  4942                           	psect	text10
  4943  0368                     __ptext10:	
  4944 ;; *************** function _SYSTEM_Initialize *****************
  4945 ;; Defined at:
  4946 ;;		line 82 in file "mcc_generated_files/mcc.c"
  4947 ;; Parameters:    Size  Location     Type
  4948 ;;		None
  4949 ;; Auto vars:     Size  Location     Type
  4950 ;;		None
  4951 ;; Return value:  Size  Location     Type
  4952 ;;                  1    wreg      void 
  4953 ;; Registers used:
  4954 ;;		wreg, status,2, status,0, pclath, cstack
  4955 ;; Tracked objects:
  4956 ;;		On entry : 0/0
  4957 ;;		On exit  : 0/0
  4958 ;;		Unchanged: 0/0
  4959 ;; Data sizes:     COMMON   BANK0   BANK1   BANK2   BANK3   BANK4   BANK5   BANK6   BANK7   BANK8   BANK9  BANK10  BANK1
      +1  BANK12
  4960 ;;      Params:         0       0       0       0       0       0       0       0       0       0       0       0       
      +0       0
  4961 ;;      Locals:         0       0       0       0       0       0       0       0       0       0       0       0       
      +0       0
  4962 ;;      Temps:          0       0       0       0       0       0       0       0       0       0       0       0       
      +0       0
  4963 ;;      Totals:         0       0       0       0       0       0       0       0       0       0       0       0       
      +0       0
  4964 ;;Total ram usage:        0 bytes
  4965 ;; Hardware stack levels used:    1
  4966 ;; Hardware stack levels required when called:    5
  4967 ;; This function calls:
  4968 ;;		_NCO1_Initialize
  4969 ;;		_OSCILLATOR_Initialize
  4970 ;;		_PIN_MANAGER_Initialize
  4971 ;;		_TMR0_Initialize
  4972 ;; This function is called by:
  4973 ;;		_main
  4974 ;; This function uses a non-reentrant model
  4975 ;;
  4976                           
  4977                           
  4978                           ;psect for function _SYSTEM_Initialize
  4979  0368                     _SYSTEM_Initialize:	
  4980                           
  4981                           ;mcc.c: 85: PIN_MANAGER_Initialize();
  4982                           
  4983                           ;incstack = 0
  4984                           ; Regs used in _SYSTEM_Initialize: [wreg+status,2+status,0+pclath+cstack]
  4985  0368  3182  22AF  3183   	fcall	_PIN_MANAGER_Initialize
  4986                           
  4987                           ;mcc.c: 86: OSCILLATOR_Initialize();
  4988  036B  3183  2374  3183   	fcall	_OSCILLATOR_Initialize
  4989                           
  4990                           ;mcc.c: 87: NCO1_Initialize();
  4991  036E  3183  234E  3183   	fcall	_NCO1_Initialize
  4992                           
  4993                           ;mcc.c: 88: TMR0_Initialize();
  4994  0371  3183  2313         	fcall	_TMR0_Initialize
  4995  0373  0008               	return
  4996  0374                     __end_of_SYSTEM_Initialize:	
  4997                           
  4998                           	psect	text11
  4999  0313                     __ptext11:	
  5000 ;; *************** function _TMR0_Initialize *****************
  5001 ;; Defined at:
  5002 ;;		line 60 in file "mcc_generated_files/tmr0.c"
  5003 ;; Parameters:    Size  Location     Type
  5004 ;;		None
  5005 ;; Auto vars:     Size  Location     Type
  5006 ;;		None
  5007 ;; Return value:  Size  Location     Type
  5008 ;;                  1    wreg      void 
  5009 ;; Registers used:
  5010 ;;		wreg, status,2, status,0, pclath, cstack
  5011 ;; Tracked objects:
  5012 ;;		On entry : 0/0
  5013 ;;		On exit  : 0/0
  5014 ;;		Unchanged: 0/0
  5015 ;; Data sizes:     COMMON   BANK0   BANK1   BANK2   BANK3   BANK4   BANK5   BANK6   BANK7   BANK8   BANK9  BANK10  BANK1
      +1  BANK12
  5016 ;;      Params:         0       0       0       0       0       0       0       0       0       0       0       0       
      +0       0
  5017 ;;      Locals:         0       0       0       0       0       0       0       0       0       0       0       0       
      +0       0
  5018 ;;      Temps:          0       0       0       0       0       0       0       0       0       0       0       0       
      +0       0
  5019 ;;      Totals:         0       0       0       0       0       0       0       0       0       0       0       0       
      +0       0
  5020 ;;Total ram usage:        0 bytes
  5021 ;; Hardware stack levels used:    1
  5022 ;; Hardware stack levels required when called:    4
  5023 ;; This function calls:
  5024 ;;		_TMR0_SetInterruptHandler
  5025 ;;		_TMR0_StartTimer
  5026 ;; This function is called by:
  5027 ;;		_SYSTEM_Initialize
  5028 ;; This function uses a non-reentrant model
  5029 ;;
  5030                           
  5031                           
  5032                           ;psect for function _TMR0_Initialize
  5033  0313                     _TMR0_Initialize:	
  5034                           
  5035                           ;tmr0.c: 65: T0CON0 = 0x09;
  5036                           
  5037                           ;incstack = 0
  5038                           ; Regs used in _TMR0_Initialize: [wreg+status,2+status,0+pclath+cstack]
  5039  0313  3009               	movlw	9
  5040  0314  0020               	movlb	0	; select bank0
  5041  0315  009E               	movwf	30	;volatile
  5042                           
  5043                           ;tmr0.c: 68: T0CON1 = 0x73;
  5044  0316  3073               	movlw	115
  5045  0317  009F               	movwf	31	;volatile
  5046                           
  5047                           ;tmr0.c: 71: TMR0H = 0x63;
  5048  0318  3063               	movlw	99
  5049  0319  009D               	movwf	29	;volatile
  5050                           
  5051                           ;tmr0.c: 74: TMR0L = 0x00;
  5052  031A  019C               	clrf	28	;volatile
  5053                           
  5054                           ;tmr0.c: 77: PIR0bits.TMR0IF = 0;
  5055  031B  002E               	movlb	14	; select bank14
  5056  031C  128C               	bcf	12,5	;volatile
  5057                           
  5058                           ;tmr0.c: 80: PIE0bits.TMR0IE = 1;
  5059  031D  1696               	bsf	22,5	;volatile
  5060                           
  5061                           ;tmr0.c: 83: TMR0_SetInterruptHandler(TMR0_DefaultInterruptHandler);
  5062  031E  3089               	movlw	low _TMR0_DefaultInterruptHandler
  5063  031F  00F1               	movwf	TMR0_SetInterruptHandler@InterruptHandler
  5064  0320  3003               	movlw	high _TMR0_DefaultInterruptHandler
  5065  0321  00F2               	movwf	TMR0_SetInterruptHandler@InterruptHandler+1
  5066  0322  3183  2383  3183   	fcall	_TMR0_SetInterruptHandler
  5067                           
  5068                           ;tmr0.c: 86: TMR0_StartTimer();
  5069  0325  3183  238F         	fcall	_TMR0_StartTimer
  5070  0327  0008               	return
  5071  0328                     __end_of_TMR0_Initialize:	
  5072                           
  5073                           	psect	text12
  5074  038F                     __ptext12:	
  5075 ;; *************** function _TMR0_StartTimer *****************
  5076 ;; Defined at:
  5077 ;;		line 89 in file "mcc_generated_files/tmr0.c"
  5078 ;; Parameters:    Size  Location     Type
  5079 ;;		None
  5080 ;; Auto vars:     Size  Location     Type
  5081 ;;		None
  5082 ;; Return value:  Size  Location     Type
  5083 ;;                  1    wreg      void 
  5084 ;; Registers used:
  5085 ;;		None
  5086 ;; Tracked objects:
  5087 ;;		On entry : 0/0
  5088 ;;		On exit  : 0/0
  5089 ;;		Unchanged: 0/0
  5090 ;; Data sizes:     COMMON   BANK0   BANK1   BANK2   BANK3   BANK4   BANK5   BANK6   BANK7   BANK8   BANK9  BANK10  BANK1
      +1  BANK12
  5091 ;;      Params:         0       0       0       0       0       0       0       0       0       0       0       0       
      +0       0
  5092 ;;      Locals:         0       0       0       0       0       0       0       0       0       0       0       0       
      +0       0
  5093 ;;      Temps:          0       0       0       0       0       0       0       0       0       0       0       0       
      +0       0
  5094 ;;      Totals:         0       0       0       0       0       0       0       0       0       0       0       0       
      +0       0
  5095 ;;Total ram usage:        0 bytes
  5096 ;; Hardware stack levels used:    1
  5097 ;; Hardware stack levels required when called:    3
  5098 ;; This function calls:
  5099 ;;		Nothing
  5100 ;; This function is called by:
  5101 ;;		_TMR0_Initialize
  5102 ;; This function uses a non-reentrant model
  5103 ;;
  5104                           
  5105                           
  5106                           ;psect for function _TMR0_StartTimer
  5107  038F                     _TMR0_StartTimer:	
  5108                           
  5109                           ;tmr0.c: 92: T0CON0bits.T0EN = 1;
  5110                           
  5111                           ;incstack = 0
  5112                           ; Regs used in _TMR0_StartTimer: []
  5113  038F  0020               	movlb	0	; select bank0
  5114  0390  179E               	bsf	30,7	;volatile
  5115  0391  0008               	return
  5116  0392                     __end_of_TMR0_StartTimer:	
  5117                           
  5118                           	psect	text13
  5119  0383                     __ptext13:	
  5120 ;; *************** function _TMR0_SetInterruptHandler *****************
  5121 ;; Defined at:
  5122 ;;		line 136 in file "mcc_generated_files/tmr0.c"
  5123 ;; Parameters:    Size  Location     Type
  5124 ;;  InterruptHan    2    1[COMMON] PTR void 
  5125 ;;		 -> TMR0_DefaultInterruptHandler(1), 
  5126 ;; Auto vars:     Size  Location     Type
  5127 ;;		None
  5128 ;; Return value:  Size  Location     Type
  5129 ;;                  1    wreg      void 
  5130 ;; Registers used:
  5131 ;;		wreg
  5132 ;; Tracked objects:
  5133 ;;		On entry : 0/0
  5134 ;;		On exit  : 0/0
  5135 ;;		Unchanged: 0/0
  5136 ;; Data sizes:     COMMON   BANK0   BANK1   BANK2   BANK3   BANK4   BANK5   BANK6   BANK7   BANK8   BANK9  BANK10  BANK1
      +1  BANK12
  5137 ;;      Params:         2       0       0       0       0       0       0       0       0       0       0       0       
      +0       0
  5138 ;;      Locals:         0       0       0       0       0       0       0       0       0       0       0       0       
      +0       0
  5139 ;;      Temps:          0       0       0       0       0       0       0       0       0       0       0       0       
      +0       0
  5140 ;;      Totals:         2       0       0       0       0       0       0       0       0       0       0       0       
      +0       0
  5141 ;;Total ram usage:        2 bytes
  5142 ;; Hardware stack levels used:    1
  5143 ;; Hardware stack levels required when called:    3
  5144 ;; This function calls:
  5145 ;;		Nothing
  5146 ;; This function is called by:
  5147 ;;		_TMR0_Initialize
  5148 ;; This function uses a non-reentrant model
  5149 ;;
  5150                           
  5151                           
  5152                           ;psect for function _TMR0_SetInterruptHandler
  5153  0383                     _TMR0_SetInterruptHandler:	
  5154                           
  5155                           ;tmr0.c: 137: TMR0_InterruptHandler = InterruptHandler;
  5156                           
  5157                           ;incstack = 0
  5158                           ; Regs used in _TMR0_SetInterruptHandler: [wreg]
  5159  0383  0872               	movf	TMR0_SetInterruptHandler@InterruptHandler+1,w
  5160  0384  0020               	movlb	0	; select bank0
  5161  0385  00BA               	movwf	_TMR0_InterruptHandler+1
  5162  0386  0871               	movf	TMR0_SetInterruptHandler@InterruptHandler,w
  5163  0387  00B9               	movwf	_TMR0_InterruptHandler
  5164  0388  0008               	return
  5165  0389                     __end_of_TMR0_SetInterruptHandler:	
  5166                           
  5167                           	psect	text14
  5168  02AF                     __ptext14:	
  5169 ;; *************** function _PIN_MANAGER_Initialize *****************
  5170 ;; Defined at:
  5171 ;;		line 51 in file "mcc_generated_files/pin_manager.c"
  5172 ;; Parameters:    Size  Location     Type
  5173 ;;		None
  5174 ;; Auto vars:     Size  Location     Type
  5175 ;;  state           1    1[COMMON] unsigned char 
  5176 ;; Return value:  Size  Location     Type
  5177 ;;                  1    wreg      void 
  5178 ;; Registers used:
  5179 ;;		wreg, status,2
  5180 ;; Tracked objects:
  5181 ;;		On entry : 0/0
  5182 ;;		On exit  : 0/0
  5183 ;;		Unchanged: 0/0
  5184 ;; Data sizes:     COMMON   BANK0   BANK1   BANK2   BANK3   BANK4   BANK5   BANK6   BANK7   BANK8   BANK9  BANK10  BANK1
      +1  BANK12
  5185 ;;      Params:         0       0       0       0       0       0       0       0       0       0       0       0       
      +0       0
  5186 ;;      Locals:         1       0       0       0       0       0       0       0       0       0       0       0       
      +0       0
  5187 ;;      Temps:          0       0       0       0       0       0       0       0       0       0       0       0       
      +0       0
  5188 ;;      Totals:         1       0       0       0       0       0       0       0       0       0       0       0       
      +0       0
  5189 ;;Total ram usage:        1 bytes
  5190 ;; Hardware stack levels used:    1
  5191 ;; Hardware stack levels required when called:    3
  5192 ;; This function calls:
  5193 ;;		Nothing
  5194 ;; This function is called by:
  5195 ;;		_SYSTEM_Initialize
  5196 ;; This function uses a non-reentrant model
  5197 ;;
  5198                           
  5199                           
  5200                           ;psect for function _PIN_MANAGER_Initialize
  5201  02AF                     _PIN_MANAGER_Initialize:	
  5202                           
  5203                           ;pin_manager.c: 56: LATA = 0x00;
  5204                           
  5205                           ;incstack = 0
  5206                           ; Regs used in _PIN_MANAGER_Initialize: [wreg+status,2]
  5207  02AF  0020               	movlb	0	; select bank0
  5208  02B0  0196               	clrf	22	;volatile
  5209                           
  5210                           ;pin_manager.c: 57: LATB = 0x00;
  5211  02B1  0197               	clrf	23	;volatile
  5212                           
  5213                           ;pin_manager.c: 58: LATC = 0x00;
  5214  02B2  0198               	clrf	24	;volatile
  5215                           
  5216                           ;pin_manager.c: 63: TRISA = 0xFF;
  5217  02B3  30FF               	movlw	255
  5218  02B4  0091               	movwf	17	;volatile
  5219                           
  5220                           ;pin_manager.c: 64: TRISB = 0xDF;
  5221  02B5  30DF               	movlw	223
  5222  02B6  0092               	movwf	18	;volatile
  5223                           
  5224                           ;pin_manager.c: 65: TRISC = 0xE4;
  5225  02B7  30E4               	movlw	228
  5226  02B8  0093               	movwf	19	;volatile
  5227                           
  5228                           ;pin_manager.c: 70: ANSELC = 0xE0;
  5229  02B9  30E0               	movlw	224
  5230  02BA  003E               	movlb	30	; select bank30
  5231  02BB  00CE               	movwf	78	;volatile
  5232                           
  5233                           ;pin_manager.c: 71: ANSELB = 0xDF;
  5234  02BC  30DF               	movlw	223
  5235  02BD  00C3               	movwf	67	;volatile
  5236                           
  5237                           ;pin_manager.c: 72: ANSELA = 0xFE;
  5238  02BE  30FE               	movlw	254
  5239  02BF  00B8               	movwf	56	;volatile
  5240                           
  5241                           ;pin_manager.c: 77: WPUE = 0x00;
  5242  02C0  01E5               	clrf	101	;volatile
  5243                           
  5244                           ;pin_manager.c: 78: WPUB = 0x00;
  5245  02C1  01C4               	clrf	68	;volatile
  5246                           
  5247                           ;pin_manager.c: 79: WPUA = 0x00;
  5248  02C2  01B9               	clrf	57	;volatile
  5249                           
  5250                           ;pin_manager.c: 80: WPUC = 0x00;
  5251  02C3  01CF               	clrf	79	;volatile
  5252                           
  5253                           ;pin_manager.c: 85: ODCONA = 0x00;
  5254  02C4  01BA               	clrf	58	;volatile
  5255                           
  5256                           ;pin_manager.c: 86: ODCONB = 0x00;
  5257  02C5  01C5               	clrf	69	;volatile
  5258                           
  5259                           ;pin_manager.c: 87: ODCONC = 0x00;
  5260  02C6  01D0               	clrf	80	;volatile
  5261                           
  5262                           ;pin_manager.c: 94: bool state = GIE;
  5263  02C7  3000               	movlw	0
  5264  02C8  1B8B               	btfsc	11,7	;volatile
  5265  02C9  3001               	movlw	1
  5266  02CA  00F1               	movwf	PIN_MANAGER_Initialize@state
  5267                           
  5268                           ;pin_manager.c: 95: GIE = 0;
  5269  02CB  138B               	bcf	11,7	;volatile
  5270                           
  5271                           ;pin_manager.c: 96: PPSLOCK = 0x55;
  5272  02CC  3055               	movlw	85
  5273  02CD  003D               	movlb	29	; select bank29
  5274  02CE  008F               	movwf	15	;volatile
  5275                           
  5276                           ;pin_manager.c: 97: PPSLOCK = 0xAA;
  5277  02CF  30AA               	movlw	170
  5278  02D0  008F               	movwf	15	;volatile
  5279                           
  5280                           ;pin_manager.c: 98: PPSLOCKbits.PPSLOCKED = 0x00;
  5281  02D1  100F               	bcf	15,0	;volatile
  5282                           
  5283                           ;pin_manager.c: 100: RC0PPS = 0x19;
  5284  02D2  3019               	movlw	25
  5285  02D3  003E               	movlb	30	; select bank30
  5286  02D4  00A0               	movwf	32	;volatile
  5287                           
  5288                           ;pin_manager.c: 102: PPSLOCK = 0x55;
  5289  02D5  3055               	movlw	85
  5290  02D6  003D               	movlb	29	; select bank29
  5291  02D7  008F               	movwf	15	;volatile
  5292                           
  5293                           ;pin_manager.c: 103: PPSLOCK = 0xAA;
  5294  02D8  30AA               	movlw	170
  5295  02D9  008F               	movwf	15	;volatile
  5296                           
  5297                           ;pin_manager.c: 104: PPSLOCKbits.PPSLOCKED = 0x01;
  5298  02DA  140F               	bsf	15,0	;volatile
  5299                           
  5300                           ;pin_manager.c: 106: GIE = state;
  5301  02DB  1C71               	btfss	PIN_MANAGER_Initialize@state,0
  5302  02DC  2ADF               	goto	u820
  5303  02DD  178B               	bsf	11,7	;volatile
  5304  02DE  0008               	return
  5305  02DF                     u820:	
  5306  02DF  138B               	bcf	11,7	;volatile
  5307  02E0  0008               	return
  5308  02E1                     __end_of_PIN_MANAGER_Initialize:	
  5309                           
  5310                           	psect	text15
  5311  0374                     __ptext15:	
  5312 ;; *************** function _OSCILLATOR_Initialize *****************
  5313 ;; Defined at:
  5314 ;;		line 91 in file "mcc_generated_files/mcc.c"
  5315 ;; Parameters:    Size  Location     Type
  5316 ;;		None
  5317 ;; Auto vars:     Size  Location     Type
  5318 ;;		None
  5319 ;; Return value:  Size  Location     Type
  5320 ;;                  1    wreg      void 
  5321 ;; Registers used:
  5322 ;;		wreg, status,2
  5323 ;; Tracked objects:
  5324 ;;		On entry : 0/0
  5325 ;;		On exit  : 0/0
  5326 ;;		Unchanged: 0/0
  5327 ;; Data sizes:     COMMON   BANK0   BANK1   BANK2   BANK3   BANK4   BANK5   BANK6   BANK7   BANK8   BANK9  BANK10  BANK1
      +1  BANK12
  5328 ;;      Params:         0       0       0       0       0       0       0       0       0       0       0       0       
      +0       0
  5329 ;;      Locals:         0       0       0       0       0       0       0       0       0       0       0       0       
      +0       0
  5330 ;;      Temps:          0       0       0       0       0       0       0       0       0       0       0       0       
      +0       0
  5331 ;;      Totals:         0       0       0       0       0       0       0       0       0       0       0       0       
      +0       0
  5332 ;;Total ram usage:        0 bytes
  5333 ;; Hardware stack levels used:    1
  5334 ;; Hardware stack levels required when called:    3
  5335 ;; This function calls:
  5336 ;;		Nothing
  5337 ;; This function is called by:
  5338 ;;		_SYSTEM_Initialize
  5339 ;; This function uses a non-reentrant model
  5340 ;;
  5341                           
  5342                           
  5343                           ;psect for function _OSCILLATOR_Initialize
  5344  0374                     _OSCILLATOR_Initialize:	
  5345                           
  5346                           ;mcc.c: 94: OSCCON1 = 0x60;
  5347                           
  5348                           ;incstack = 0
  5349                           ; Regs used in _OSCILLATOR_Initialize: [wreg+status,2]
  5350  0374  3060               	movlw	96
  5351  0375  0031               	movlb	17	; select bank17
  5352  0376  008D               	movwf	13	;volatile
  5353                           
  5354                           ;mcc.c: 96: OSCCON3 = 0x00;
  5355  0377  018F               	clrf	15	;volatile
  5356                           
  5357                           ;mcc.c: 98: OSCEN = 0x00;
  5358  0378  0191               	clrf	17	;volatile
  5359                           
  5360                           ;mcc.c: 100: OSCFRQ = 0x03;
  5361  0379  3003               	movlw	3
  5362  037A  0093               	movwf	19	;volatile
  5363                           
  5364                           ;mcc.c: 102: OSCTUNE = 0x00;
  5365  037B  0192               	clrf	18	;volatile
  5366  037C  0008               	return
  5367  037D                     __end_of_OSCILLATOR_Initialize:	
  5368                           
  5369                           	psect	text16
  5370  034E                     __ptext16:	
  5371 ;; *************** function _NCO1_Initialize *****************
  5372 ;; Defined at:
  5373 ;;		line 57 in file "mcc_generated_files/nco1.c"
  5374 ;; Parameters:    Size  Location     Type
  5375 ;;		None
  5376 ;; Auto vars:     Size  Location     Type
  5377 ;;		None
  5378 ;; Return value:  Size  Location     Type
  5379 ;;                  1    wreg      void 
  5380 ;; Registers used:
  5381 ;;		wreg, status,2
  5382 ;; Tracked objects:
  5383 ;;		On entry : 0/0
  5384 ;;		On exit  : 0/0
  5385 ;;		Unchanged: 0/0
  5386 ;; Data sizes:     COMMON   BANK0   BANK1   BANK2   BANK3   BANK4   BANK5   BANK6   BANK7   BANK8   BANK9  BANK10  BANK1
      +1  BANK12
  5387 ;;      Params:         0       0       0       0       0       0       0       0       0       0       0       0       
      +0       0
  5388 ;;      Locals:         0       0       0       0       0       0       0       0       0       0       0       0       
      +0       0
  5389 ;;      Temps:          0       0       0       0       0       0       0       0       0       0       0       0       
      +0       0
  5390 ;;      Totals:         0       0       0       0       0       0       0       0       0       0       0       0       
      +0       0
  5391 ;;Total ram usage:        0 bytes
  5392 ;; Hardware stack levels used:    1
  5393 ;; Hardware stack levels required when called:    3
  5394 ;; This function calls:
  5395 ;;		Nothing
  5396 ;; This function is called by:
  5397 ;;		_SYSTEM_Initialize
  5398 ;; This function uses a non-reentrant model
  5399 ;;
  5400                           
  5401                           
  5402                           ;psect for function _NCO1_Initialize
  5403  034E                     _NCO1_Initialize:	
  5404                           
  5405                           ;nco1.c: 61: NCO1CON = 0x00;
  5406                           
  5407                           ;incstack = 0
  5408                           ; Regs used in _NCO1_Initialize: [wreg+status,2]
  5409  034E  002B               	movlb	11	; select bank11
  5410  034F  0192               	clrf	18	;volatile
  5411                           
  5412                           ;nco1.c: 63: NCO1CLK = 0x01;
  5413  0350  3001               	movlw	1
  5414  0351  0093               	movwf	19	;volatile
  5415                           
  5416                           ;nco1.c: 65: NCO1ACCU = 0x00;
  5417  0352  018E               	clrf	14	;volatile
  5418                           
  5419                           ;nco1.c: 67: NCO1ACCH = 0x00;
  5420  0353  018D               	clrf	13	;volatile
  5421                           
  5422                           ;nco1.c: 69: NCO1INCU = 0x00;
  5423  0354  0191               	clrf	17	;volatile
  5424                           
  5425                           ;nco1.c: 70: NCO1INCH = 0x02;
  5426  0355  3002               	movlw	2
  5427  0356  0090               	movwf	16	;volatile
  5428                           
  5429                           ;nco1.c: 71: NCO1INCL = 0x0D;
  5430  0357  300D               	movlw	13
  5431  0358  008F               	movwf	15	;volatile
  5432                           
  5433                           ;nco1.c: 73: NCO1CONbits.N1EN = 1;
  5434  0359  1792               	bsf	18,7	;volatile
  5435  035A  0008               	return
  5436  035B                     __end_of_NCO1_Initialize:	
  5437                           
  5438                           	psect	intentry
  5439  0004                     __pintentry:	
  5440 ;; *************** function _INTERRUPT_InterruptManager *****************
  5441 ;; Defined at:
  5442 ;;		line 51 in file "mcc_generated_files/interrupt_manager.c"
  5443 ;; Parameters:    Size  Location     Type
  5444 ;;		None
  5445 ;; Auto vars:     Size  Location     Type
  5446 ;;		None
  5447 ;; Return value:  Size  Location     Type
  5448 ;;                  1    wreg      void 
  5449 ;; Registers used:
  5450 ;;		wreg, status,2, status,0, pclath, cstack
  5451 ;; Tracked objects:
  5452 ;;		On entry : 0/0
  5453 ;;		On exit  : 0/0
  5454 ;;		Unchanged: 0/0
  5455 ;; Data sizes:     COMMON   BANK0   BANK1   BANK2   BANK3   BANK4   BANK5   BANK6   BANK7   BANK8   BANK9  BANK10  BANK1
      +1  BANK12
  5456 ;;      Params:         0       0       0       0       0       0       0       0       0       0       0       0       
      +0       0
  5457 ;;      Locals:         0       0       0       0       0       0       0       0       0       0       0       0       
      +0       0
  5458 ;;      Temps:          1       0       0       0       0       0       0       0       0       0       0       0       
      +0       0
  5459 ;;      Totals:         1       0       0       0       0       0       0       0       0       0       0       0       
      +0       0
  5460 ;;Total ram usage:        1 bytes
  5461 ;; Hardware stack levels used:    1
  5462 ;; Hardware stack levels required when called:    2
  5463 ;; This function calls:
  5464 ;;		_TMR0_ISR
  5465 ;; This function is called by:
  5466 ;;		Interrupt level 1
  5467 ;; This function uses a non-reentrant model
  5468 ;;
  5469                           
  5470  0004                     _INTERRUPT_InterruptManager:	
  5471                           
  5472                           ;incstack = 0
  5473  0004  147E               	bsf	126,0	;set compiler interrupt flag (level 1)
  5474                           
  5475                           ; Regs used in _INTERRUPT_InterruptManager: [wreg+status,2+status,0+pclath+cstack]
  5476  0005  3180               	pagesel	$
  5477  0006  0020               	movlb	0	; select bank0
  5478  0007  087F               	movf	127,w
  5479  0008  00F0               	movwf	??_INTERRUPT_InterruptManager
  5480                           
  5481                           ;interrupt_manager.c: 54: if(PIE0bits.TMR0IE == 1 && PIR0bits.TMR0IF == 1)
  5482  0009  002E               	movlb	14	; select bank14
  5483  000A  1A96               	btfsc	22,5	;volatile
  5484  000B  1E8C               	btfss	12,5	;volatile
  5485  000C  280F               	goto	i1l374
  5486                           
  5487                           ;interrupt_manager.c: 55: {
  5488                           ;interrupt_manager.c: 56: TMR0_ISR();
  5489  000D  3183  235B         	fcall	_TMR0_ISR
  5490  000F                     i1l374:	
  5491                           ;interrupt_manager.c: 58: else
  5492                           ;interrupt_manager.c: 59: {
  5493                           
  5494                           ;interrupt_manager.c: 57: }
  5495                           
  5496  000F  0870               	movf	??_INTERRUPT_InterruptManager,w
  5497  0010  0020               	movlb	0	; select bank0
  5498  0011  00FF               	movwf	127
  5499  0012  107E               	bcf	126,0	;clear compiler interrupt flag (level 1)
  5500  0013  0009               	retfie
  5501  0014                     __end_of_INTERRUPT_InterruptManager:	
  5502                           
  5503                           	psect	text18
  5504  035B                     __ptext18:	
  5505 ;; *************** function _TMR0_ISR *****************
  5506 ;; Defined at:
  5507 ;;		line 123 in file "mcc_generated_files/tmr0.c"
  5508 ;; Parameters:    Size  Location     Type
  5509 ;;		None
  5510 ;; Auto vars:     Size  Location     Type
  5511 ;;		None
  5512 ;; Return value:  Size  Location     Type
  5513 ;;                  1    wreg      void 
  5514 ;; Registers used:
  5515 ;;		wreg, status,2, status,0, pclath, cstack
  5516 ;; Tracked objects:
  5517 ;;		On entry : 0/0
  5518 ;;		On exit  : 0/0
  5519 ;;		Unchanged: 0/0
  5520 ;; Data sizes:     COMMON   BANK0   BANK1   BANK2   BANK3   BANK4   BANK5   BANK6   BANK7   BANK8   BANK9  BANK10  BANK1
      +1  BANK12
  5521 ;;      Params:         0       0       0       0       0       0       0       0       0       0       0       0       
      +0       0
  5522 ;;      Locals:         0       0       0       0       0       0       0       0       0       0       0       0       
      +0       0
  5523 ;;      Temps:          0       0       0       0       0       0       0       0       0       0       0       0       
      +0       0
  5524 ;;      Totals:         0       0       0       0       0       0       0       0       0       0       0       0       
      +0       0
  5525 ;;Total ram usage:        0 bytes
  5526 ;; Hardware stack levels used:    1
  5527 ;; Hardware stack levels required when called:    1
  5528 ;; This function calls:
  5529 ;;		Absolute function
  5530 ;;		_TMR0_DefaultInterruptHandler
  5531 ;; This function is called by:
  5532 ;;		_INTERRUPT_InterruptManager
  5533 ;; This function uses a non-reentrant model
  5534 ;;
  5535                           
  5536                           
  5537                           ;psect for function _TMR0_ISR
  5538  035B                     _TMR0_ISR:	
  5539                           
  5540                           ;tmr0.c: 126: PIR0bits.TMR0IF = 0;
  5541                           
  5542                           ;incstack = 0
  5543                           ; Regs used in _TMR0_ISR: [wreg+status,2+status,0+pclath+cstack]
  5544  035B  002E               	movlb	14	; select bank14
  5545  035C  128C               	bcf	12,5	;volatile
  5546                           
  5547                           ;tmr0.c: 127: if(TMR0_InterruptHandler)
  5548  035D  0020               	movlb	0	; select bank0
  5549  035E  0839               	movf	_TMR0_InterruptHandler,w
  5550  035F  043A               	iorwf	_TMR0_InterruptHandler+1,w
  5551  0360  1903               	btfsc	3,2
  5552  0361  0008               	return
  5553                           
  5554                           ;tmr0.c: 128: {
  5555                           ;tmr0.c: 129: TMR0_InterruptHandler();
  5556  0362  083A               	movf	_TMR0_InterruptHandler+1,w
  5557  0363  008A               	movwf	10
  5558  0364  0839               	movf	_TMR0_InterruptHandler,w
  5559  0365  000A               	callw
  5560  0366  3183               	pagesel	$
  5561  0367  0008               	return
  5562  0368                     __end_of_TMR0_ISR:	
  5563                           
  5564                           	psect	text19
  5565  0389                     __ptext19:	
  5566 ;; *************** function _TMR0_DefaultInterruptHandler *****************
  5567 ;; Defined at:
  5568 ;;		line 140 in file "mcc_generated_files/tmr0.c"
  5569 ;; Parameters:    Size  Location     Type
  5570 ;;		None
  5571 ;; Auto vars:     Size  Location     Type
  5572 ;;		None
  5573 ;; Return value:  Size  Location     Type
  5574 ;;                  1    wreg      void 
  5575 ;; Registers used:
  5576 ;;		wreg
  5577 ;; Tracked objects:
  5578 ;;		On entry : 0/0
  5579 ;;		On exit  : 0/0
  5580 ;;		Unchanged: 0/0
  5581 ;; Data sizes:     COMMON   BANK0   BANK1   BANK2   BANK3   BANK4   BANK5   BANK6   BANK7   BANK8   BANK9  BANK10  BANK1
      +1  BANK12
  5582 ;;      Params:         0       0       0       0       0       0       0       0       0       0       0       0       
      +0       0
  5583 ;;      Locals:         0       0       0       0       0       0       0       0       0       0       0       0       
      +0       0
  5584 ;;      Temps:          0       0       0       0       0       0       0       0       0       0       0       0       
      +0       0
  5585 ;;      Totals:         0       0       0       0       0       0       0       0       0       0       0       0       
      +0       0
  5586 ;;Total ram usage:        0 bytes
  5587 ;; Hardware stack levels used:    1
  5588 ;; This function calls:
  5589 ;;		Nothing
  5590 ;; This function is called by:
  5591 ;;		_TMR0_Initialize
  5592 ;;		_TMR0_ISR
  5593 ;; This function uses a non-reentrant model
  5594 ;;
  5595                           
  5596                           
  5597                           ;psect for function _TMR0_DefaultInterruptHandler
  5598  0389                     _TMR0_DefaultInterruptHandler:	
  5599                           
  5600                           ;tmr0.c: 142: millis++;
  5601                           
  5602                           ;incstack = 0
  5603                           ; Regs used in _TMR0_DefaultInterruptHandler: [wreg]
  5604  0389  3001               	movlw	1
  5605  038A  0020               	movlb	0	; select bank0
  5606  038B  07A0               	addwf	_millis,f
  5607  038C  3000               	movlw	0
  5608  038D  3DA1               	addwfc	_millis+1,f
  5609  038E  0008               	return
  5610  038F                     __end_of_TMR0_DefaultInterruptHandler:	
  5611  007E                     btemp	set	126	;btemp
  5612  007E                     int$flags	set	126
  5613  007E                     wtemp0	set	126


Data Sizes:
    Strings     0
    Constant    0
    Data        0
    BSS         77
    Persistent  2
    Stack       0

Auto Spaces:
    Space          Size  Autos    Used
    COMMON           14     12      13
    BANK0            80      9      27
    BANK1            80      0      60
    BANK2            80      0       0
    BANK3            80      0       0
    BANK4            80      0       0
    BANK5            80      0       0
    BANK6            80      0       0
    BANK7            80      0       0
    BANK8            80      0       0
    BANK9            80      0       0
    BANK10           80      0       0
    BANK11           80      0       0
    BANK12           48      0       0

Pointer List with Targets:

    TMR0_SetInterruptHandler@InterruptHandler	PTR void  size(2) Largest target is 1
		 -> TMR0_DefaultInterruptHandler(), 

    TMR0_InterruptHandler	PTR FTN()void  size(2) Largest target is 1
		 -> Absolute function(), TMR0_DefaultInterruptHandler(), 

    read_ds1307@ptr	PTR unsigned char  size(1) Largest target is 60
		 -> pData(BANK1[60]), 


Critical Paths under _main in COMMON

    _read_ds1307->_i2c_write
    _bcdToDec->___bmul
    ___bmul->___awdiv
    _TMR0_Initialize->_TMR0_SetInterruptHandler

Critical Paths under _INTERRUPT_InterruptManager in COMMON

    None.

Critical Paths under _main in BANK0

    _main->_get_time_date
    _get_time_date->_bcdToDec
    _bcdToDec->___bmul

Critical Paths under _INTERRUPT_InterruptManager in BANK0

    None.

Critical Paths under _main in BANK1

    None.

Critical Paths under _INTERRUPT_InterruptManager in BANK1

    None.

Critical Paths under _main in BANK2

    None.

Critical Paths under _INTERRUPT_InterruptManager in BANK2

    None.

Critical Paths under _main in BANK3

    None.

Critical Paths under _INTERRUPT_InterruptManager in BANK3

    None.

Critical Paths under _main in BANK4

    None.

Critical Paths under _INTERRUPT_InterruptManager in BANK4

    None.

Critical Paths under _main in BANK5

    None.

Critical Paths under _INTERRUPT_InterruptManager in BANK5

    None.

Critical Paths under _main in BANK6

    None.

Critical Paths under _INTERRUPT_InterruptManager in BANK6

    None.

Critical Paths under _main in BANK7

    None.

Critical Paths under _INTERRUPT_InterruptManager in BANK7

    None.

Critical Paths under _main in BANK8

    None.

Critical Paths under _INTERRUPT_InterruptManager in BANK8

    None.

Critical Paths under _main in BANK9

    None.

Critical Paths under _INTERRUPT_InterruptManager in BANK9

    None.

Critical Paths under _main in BANK10

    None.

Critical Paths under _INTERRUPT_InterruptManager in BANK10

    None.

Critical Paths under _main in BANK11

    None.

Critical Paths under _INTERRUPT_InterruptManager in BANK11

    None.

Critical Paths under _main in BANK12

    None.

Critical Paths under _INTERRUPT_InterruptManager in BANK12

    None.

Call Graph Tables:

 ---------------------------------------------------------------------------------
 (Depth) Function   	        Calls       Base Space   Used Autos Params    Refs
 ---------------------------------------------------------------------------------
 (0) _main                                                 1     1      0    1841
                  _SYSTEM_Initialize
                      _get_time_date
                          _i2c_start
                           _i2c_stop
 ---------------------------------------------------------------------------------
 (1) _get_time_date                                        4     4      0    1732
                                              7 BANK0      2     2      0
                           _bcdToDec
                        _read_ds1307
 ---------------------------------------------------------------------------------
 (2) _read_ds1307                                          9     7      2     704
                                              4 COMMON     4     2      2
                                              0 BANK0      5     5      0
                         _delay_10us
                          _i2c_start
                           _i2c_stop
                          _i2c_write
 ---------------------------------------------------------------------------------
 (3) _i2c_write                                            3     3      0     102
                                              1 COMMON     3     3      0
                         _delay_10us
 ---------------------------------------------------------------------------------
 (1) _i2c_stop                                             1     1      0       0
                         _delay_10us
 ---------------------------------------------------------------------------------
 (1) _i2c_start                                            0     0      0       0
                         _delay_10us
 ---------------------------------------------------------------------------------
 (2) _delay_10us                                           0     0      0       0
 ---------------------------------------------------------------------------------
 (2) _bcdToDec                                             5     5      0    1028
                                              2 BANK0      5     5      0
                            ___awdiv
                             ___bmul
 ---------------------------------------------------------------------------------
 (3) ___bmul                                               4     3      1     213
                                             10 COMMON     2     1      1
                                              0 BANK0      2     2      0
                            ___awdiv (ARG)
 ---------------------------------------------------------------------------------
 (3) ___awdiv                                              9     5      4     753
                                              1 COMMON     9     5      4
 ---------------------------------------------------------------------------------
 (1) _SYSTEM_Initialize                                    0     0      0     109
                    _NCO1_Initialize
              _OSCILLATOR_Initialize
             _PIN_MANAGER_Initialize
                    _TMR0_Initialize
 ---------------------------------------------------------------------------------
 (2) _TMR0_Initialize                                      0     0      0      86
           _TMR0_SetInterruptHandler
                    _TMR0_StartTimer
 ---------------------------------------------------------------------------------
 (3) _TMR0_StartTimer                                      0     0      0       0
 ---------------------------------------------------------------------------------
 (3) _TMR0_SetInterruptHandler                             2     0      2      86
                                              1 COMMON     2     0      2
 ---------------------------------------------------------------------------------
 (2) _PIN_MANAGER_Initialize                               1     1      0      23
                                              1 COMMON     1     1      0
 ---------------------------------------------------------------------------------
 (2) _OSCILLATOR_Initialize                                0     0      0       0
 ---------------------------------------------------------------------------------
 (2) _NCO1_Initialize                                      0     0      0       0
 ---------------------------------------------------------------------------------
 Estimated maximum stack depth 3
 ---------------------------------------------------------------------------------
 (Depth) Function   	        Calls       Base Space   Used Autos Params    Refs
 ---------------------------------------------------------------------------------
 (5) _INTERRUPT_InterruptManager                           1     1      0       0
                                              0 COMMON     1     1      0
                           _TMR0_ISR
 ---------------------------------------------------------------------------------
 (6) _TMR0_ISR                                             0     0      0       0
                   Absolute function *
       _TMR0_DefaultInterruptHandler *
 ---------------------------------------------------------------------------------
 (7) _TMR0_DefaultInterruptHandler                         0     0      0       0
 ---------------------------------------------------------------------------------
 (7) Absolute function(Fake)                               0     0      0       0
 ---------------------------------------------------------------------------------
 Estimated maximum stack depth 7
 ---------------------------------------------------------------------------------

 Call Graph Graphs:

 _main (ROOT)
   _SYSTEM_Initialize
     _NCO1_Initialize
     _OSCILLATOR_Initialize
     _PIN_MANAGER_Initialize
     _TMR0_Initialize
       _TMR0_SetInterruptHandler
       _TMR0_StartTimer
   _get_time_date
     _bcdToDec
       ___awdiv
       ___bmul
         ___awdiv (ARG)
     _read_ds1307
       _delay_10us
       _i2c_start
         _delay_10us
       _i2c_stop
         _delay_10us
       _i2c_write
         _delay_10us
   _i2c_start
     _delay_10us
   _i2c_stop
     _delay_10us

 _INTERRUPT_InterruptManager (ROOT)
   _TMR0_ISR
     Absolute function(Fake) *
     _TMR0_DefaultInterruptHandler *

 Address spaces:
Name               Size   Autos  Total    Cost      Usage
BIGRAM             3F0      0       0       0        0.0%
EEDATA             100      0       0       0        0.0%
NULL                 0      0       0       0        0.0%
CODE                 0      0       0       0        0.0%
BITCOMMON            E      0       0       1        0.0%
BITSFR0              0      0       0       1        0.0%
SFR0                 0      0       0       1        0.0%
COMMON               E      C       D       2       92.9%
BITSFR1              0      0       0       2        0.0%
SFR1                 0      0       0       2        0.0%
BITSFR2              0      0       0       3        0.0%
SFR2                 0      0       0       3        0.0%
STACK                0      0       0       3        0.0%
BITBANK0            50      0       0       4        0.0%
BITSFR3              0      0       0       4        0.0%
SFR3                 0      0       0       4        0.0%
BANK0               50      9      1B       5       33.8%
BITSFR4              0      0       0       5        0.0%
SFR4                 0      0       0       5        0.0%
BITBANK1            50      0       0       6        0.0%
BITSFR5              0      0       0       6        0.0%
SFR5                 0      0       0       6        0.0%
BANK1               50      0      3C       7       75.0%
BITSFR6              0      0       0       7        0.0%
SFR6                 0      0       0       7        0.0%
BITBANK2            50      0       0       8        0.0%
BITSFR7              0      0       0       8        0.0%
SFR7                 0      0       0       8        0.0%
BANK2               50      0       0       9        0.0%
BITSFR8              0      0       0       9        0.0%
SFR8                 0      0       0       9        0.0%
BITBANK3            50      0       0      10        0.0%
BITSFR9              0      0       0      10        0.0%
SFR9                 0      0       0      10        0.0%
BANK3               50      0       0      11        0.0%
BITSFR10             0      0       0      11        0.0%
SFR10                0      0       0      11        0.0%
BITBANK4            50      0       0      12        0.0%
BITSFR11             0      0       0      12        0.0%
SFR11                0      0       0      12        0.0%
BANK4               50      0       0      13        0.0%
BITSFR12             0      0       0      13        0.0%
SFR12                0      0       0      13        0.0%
BITBANK5            50      0       0      14        0.0%
BITSFR13             0      0       0      14        0.0%
SFR13                0      0       0      14        0.0%
BANK5               50      0       0      15        0.0%
BITSFR14             0      0       0      15        0.0%
SFR14                0      0       0      15        0.0%
BITBANK6            50      0       0      16        0.0%
BITSFR15             0      0       0      16        0.0%
SFR15                0      0       0      16        0.0%
BANK6               50      0       0      17        0.0%
BITSFR16             0      0       0      17        0.0%
SFR16                0      0       0      17        0.0%
BITBANK7            50      0       0      18        0.0%
BITSFR17             0      0       0      18        0.0%
SFR17                0      0       0      18        0.0%
BANK7               50      0       0      19        0.0%
BITSFR18             0      0       0      19        0.0%
SFR18                0      0       0      19        0.0%
BITSFR19             0      0       0      20        0.0%
SFR19                0      0       0      20        0.0%
ABS                  0      0      64      20        0.0%
BITBANK8            50      0       0      21        0.0%
BITSFR20             0      0       0      21        0.0%
SFR20                0      0       0      21        0.0%
BANK8               50      0       0      22        0.0%
BITSFR21             0      0       0      22        0.0%
SFR21                0      0       0      22        0.0%
BITBANK9            50      0       0      23        0.0%
BITSFR22             0      0       0      23        0.0%
SFR22                0      0       0      23        0.0%
BANK9               50      0       0      24        0.0%
BITSFR23             0      0       0      24        0.0%
SFR23                0      0       0      24        0.0%
BITBANK10           50      0       0      25        0.0%
BITSFR24             0      0       0      25        0.0%
SFR24                0      0       0      25        0.0%
BANK10              50      0       0      26        0.0%
BITSFR25             0      0       0      26        0.0%
SFR25                0      0       0      26        0.0%
BITBANK11           50      0       0      27        0.0%
BITSFR26             0      0       0      27        0.0%
SFR26                0      0       0      27        0.0%
BANK11              50      0       0      28        0.0%
BITSFR27             0      0       0      28        0.0%
SFR27                0      0       0      28        0.0%
BITBANK12           30      0       0      29        0.0%
BITSFR28             0      0       0      29        0.0%
SFR28                0      0       0      29        0.0%
BANK12              30      0       0      30        0.0%
BITSFR29             0      0       0      30        0.0%
SFR29                0      0       0      30        0.0%
BITSFR30             0      0       0      31        0.0%
SFR30                0      0       0      31        0.0%
DATA                 0      0      64      31        0.0%
BITSFR31             0      0       0      32        0.0%
SFR31                0      0       0      32        0.0%


Microchip Technology PIC Macro Assembler V1.40 build -251452761 
Symbol Table                                                                                   Tue Jan 10 18:18:38 2017

                          ___bmul@product 0030                               __CFG_CP$OFF 0000  
                            ___awdiv@sign 0077                               __CFG_ZCD$ON 0000  
                                     l303 029E                                       l231 0170  
                                     l248 01B5                                       l176 004C  
                                     l178 0061                                       l188 00AD  
                                     l297 0280                                       _GIE 005F  
                          ?_get_time_date 0070                              __CFG_CPD$OFF 0000  
                                     u820 02DF                              __CFG_BORV$LO 0000  
                                     wreg 0009                              __CFG_LVP$OFF 0000  
                                    l2040 0191                                      l2220 00F5  
                                    l2212 00E1                                      l2204 00CD  
                                    l2038 013C                                      l2126 0044  
                                    l2136 0052                                      l2228 0109  
                                    l2164 0081                                      l2190 00AE  
                                    l2168 008A                                      l2178 009F  
                                    l2186 00A7                                      l2196 00BA  
                                    l1904 0287                                      l1930 033F  
                                    l1950 022D                                      l1934 0345  
                                    l1956 0238                                      l1982 026F  
                                    l1974 025E                                      l1966 0240  
                                    l1968 024C                                      l1978 0267  
                                    _LATA 0016                                      _LATB 0017  
                                    _LATC 0018                                      u1505 0257  
                                    u1515 025F                                      u1390 0285  
                                    u1475 0243                                      u1565 014A  
                                    u1495 024D                                      _WPUA 0F39  
                                    _WPUB 0F44                                      _WPUC 0F4F  
                                    _WPUE 0F65                              __CFG_WRT$OFF 0000  
                           __CFG_FCMEN$ON 0000                                      _main 002A  
                                    _hour 0026                           _TMR0_StartTimer 038F  
                                    _year 002F                                      fsr0h 0005  
                                    fsr1h 0007                                      indf0 0000  
                                    fsr0l 0004                                      indf1 0001  
                                    fsr1l 0006                                      btemp 007E  
                           __CFG_BOREN$ON 0000                                      start 0014  
                              i2c_write@i 0073                          ?_NCO1_Initialize 0070  
                           __CFG_CSWEN$ON 0000                         ___bmul@multiplier 0031  
                           __CFG_MCLRE$ON 0000                   __end_of_TMR0_Initialize 0328  
          ??_TMR0_DefaultInterruptHandler 0070            __size_of_OSCILLATOR_Initialize 0009  
           __end_of_OSCILLATOR_Initialize 037D                                     ?_main 0070  
                            ?_read_ds1307 0074                           __end_of___awdiv 0274  
                           __CFG_WDTE$OFF 0000                           ___awdiv@divisor 0071  
                                   i1l374 000F                           ___awdiv@counter 0076  
                                   _OSCEN 0891                                     _TMR0H 001D  
                                   _TMR0L 001C                                     _TRISA 0011  
                                   _TRISB 0012                                     _TRISC 0013  
       __size_of_TMR0_SetInterruptHandler 0006                 ?_TMR0_SetInterruptHandler 0071  
                        __end_of_TMR0_ISR 0368                                     _pData 00A0  
                                   _r_flg 002A                                     _s_flg 002D  
                                   _month 0028                                     pclath 000A  
                                   status 0003                                     wtemp0 007E  
                         __initialization 0016                              __end_of_main 0119  
                        __end_of_i2c_stop 0313               ?_INTERRUPT_InterruptManager 0070  
                         ??_get_time_date 0037                                    ??_main 007C  
                 __end_of_TMR0_StartTimer 0392                          ___awdiv@dividend 0073  
                        __end_of_bcdToDec 02FE                                    _ANSELA 0F38  
                                  _ANSELB 0F43                                    _ANSELC 0F4E  
                      __CFG_RSTOSC$HFINT1 0000                                    _T0CON0 001E  
                                  _T0CON1 001F                                    _RC0PPS 0F20  
                                  _ODCONA 0F3A                                    _ODCONB 0F45  
                                  _ODCONC 0F50                            __CFG_WDTCCS$SC 0000  
                                  _OSCFRQ 0893                        __size_of_i2c_start 0014  
                      __size_of_i2c_write 003B                            __CFG_PWRTE$OFF 0000  
                                  ___bmul 033C                                 ??___awdiv 0075  
                          __CFG_STVREN$ON 0000                          ?_TMR0_Initialize 0070  
                                  _millis 0020                          ___awdiv@quotient 0078  
                                  _minute 0027                                    _second 002E  
TMR0_SetInterruptHandler@InterruptHandler 0071                         _SYSTEM_Initialize 0368  
                 __end_of__initialization 0026                        ?_SYSTEM_Initialize 0070  
                     ___bmul@multiplicand 007A                            __pcstackCOMMON 0070  
                     ??_SYSTEM_Initialize 0073                                 ?_TMR0_ISR 0070  
                       __end_of_i2c_start 033C                         __end_of_i2c_write 02AF  
                    __size_of_read_ds1307 00B7                          ?_TMR0_StartTimer 0070  
               __end_of_SYSTEM_Initialize 0374                                __pbssBANK0 0020  
                              __pbssBANK1 00A0                                 ?_i2c_stop 0070  
                              _delay_10us 0392                                __pmaintext 002A  
                                 ?___bmul 007A          __end_of_TMR0_SetInterruptHandler 0389  
                              ??_TMR0_ISR 0070                           __CFG_PPS1WAY$ON 0000  
                              __pintentry 0004                                 ?_bcdToDec 0070  
                                 _NCO1CLK 0593                                   _NCO1CON 0592  
                                 _OSCCON1 088D                                   _OSCCON3 088F  
                                 _OSCTUNE 0892                                   _PPSLOCK 0E8F  
                              ??_i2c_stop 0071                      __CFG_SCANE$available 0000  
                         __size_of___bmul 0012                                   ___awdiv 0223  
                              ??_bcdToDec 0032                              read_ds1307@i 0031  
                            read_ds1307@j 0034                  __size_of_NCO1_Initialize 000D  
                                 __ptext1 01D0                                   __ptext2 0119  
                                 __ptext3 0274                                   __ptext4 02FE  
                                 __ptext5 0328                                   __ptext6 0392  
                                 __ptext7 02E1                                   __ptext8 033C  
                                 __ptext9 0223                     _OSCILLATOR_Initialize 0374  
                              _buzzer_flg 0025                  ??_PIN_MANAGER_Initialize 0071  
                                 _seconds 0022                                   _weekDay 007C  
              __size_of_SYSTEM_Initialize 000C                                   clrloop0 037E  
                    end_of_initialization 0026                               ?_delay_10us 0070  
                   __CFG_WDTCPS$WDTCPS_31 0000                                _rtc_config 002C  
                _TMR0_SetInterruptHandler 0383                                 _PORTAbits 000C  
                               _PORTCbits 000E                     __end_of_get_time_date 0223  
                               _TRISAbits 0011                                 _TRISCbits 0013  
                        __CFG_FEXTOSC$OFF 0000                     read_ds1307@input_data 0033  
                          __end_of___bmul 034E                         __size_of_TMR0_ISR 000D  
                  ?_OSCILLATOR_Initialize 0070                       __size_of_delay_10us 0002  
                     start_initialization 0016                  __size_of_TMR0_Initialize 0015  
         __size_of_PIN_MANAGER_Initialize 0032                                 _i2c_start 0328  
                       ??_NCO1_Initialize 0071                                 _i2c_write 0274  
                            _LED_blue_flg 0024                         __size_of_i2c_stop 0015  
                        __CFG_LPBOREN$OFF 0000                                  ??___bmul 007B  
                             bcdToDec@val 0036                             ??_read_ds1307 0076  
                       __size_of_bcdToDec 001D                               __pbssCOMMON 007C  
                               ___latbits 0002                             __pcstackBANK0 0030  
                              ?_i2c_start 0070                                ?_i2c_write 0070  
                   _TMR0_InterruptHandler 0039                                 __pnvBANK0 0039  
                __size_of_TMR0_StartTimer 0003                    _PIN_MANAGER_Initialize 02AF  
                          read_ds1307@len 0075                            read_ds1307@ptr 0074  
                                ?___awdiv 0071              ??_INTERRUPT_InterruptManager 0070  
                             _NCO1CONbits 0592                       __end_of_read_ds1307 01D0  
                                _NCO1ACCH 058D                                  _NCO1ACCU 058E  
                                _NCO1INCH 0590                                  _NCO1INCL 058F  
                                _NCO1INCU 0591                         ??_TMR0_Initialize 0073  
                            ??_delay_10us 0071                                  _LATBbits 0017  
                                _LATCbits 0018                      read_ds1307@dev_addrs 0032  
                               clear_ram0 037D                                  _PIE0bits 0716  
     __size_of_INTERRUPT_InterruptManager 0010                ??_TMR0_SetInterruptHandler 0073  
                                _PIR0bits 070C                                  _TMR0_ISR 035B  
                      __end_of_delay_10us 0394                               ??_i2c_start 0071  
                             ??_i2c_write 0071                                  _i2c_stop 02FE  
                    read_ds1307@wdr_addrs 0030                              _relay_on_flg 002B  
                 ??_OSCILLATOR_Initialize 0071                         ??_TMR0_StartTimer 0071  
                        __size_of___awdiv 0051                           _NCO1_Initialize 034E  
                                _bcdToDec 02E1                               _read_ds1307 0119  
                              _T0CON0bits 001E                                  __ptext10 0368  
                                __ptext11 0313                                  __ptext12 038F  
                                __ptext13 0383                                  __ptext14 02AF  
                                __ptext15 0374                                  __ptext16 034E  
                                __ptext18 035B                                  __ptext19 0389  
                           __size_of_main 00EF      __end_of_TMR0_DefaultInterruptHandler 038F  
   __size_of_TMR0_DefaultInterruptHandler 0006              _TMR0_DefaultInterruptHandler 0389  
                    __CFG_WDTCWS$WDTCWS_7 0000                    __size_of_get_time_date 0053  
                                _monthDay 0029                                  int$flags 007E  
      __end_of_INTERRUPT_InterruptManager 0014                _INTERRUPT_InterruptManager 0004  
             PIN_MANAGER_Initialize@state 0071                                _INTCONbits 000B  
                    i2c_write@output_data 0072                                  intlevel1 0000  
                 ?_PIN_MANAGER_Initialize 0070                         __CFG_CLKOUTEN$OFF 0000  
                             _PPSLOCKbits 0E8F                   __end_of_NCO1_Initialize 035B  
           ?_TMR0_DefaultInterruptHandler 0070                             _get_time_date 01D0  
                         _TMR0_Initialize 0313            __end_of_PIN_MANAGER_Initialize 02E1  
